ARM GAS  /var/folders/h5/t6jc6jh127n_294bflj9bdw40000gn/T//ccH8MPpK.s 			page 1


   1              		.cpu cortex-m4
   2              		.eabi_attribute 27, 1
   3              		.eabi_attribute 28, 1
   4              		.eabi_attribute 20, 1
   5              		.eabi_attribute 21, 1
   6              		.eabi_attribute 23, 3
   7              		.eabi_attribute 24, 1
   8              		.eabi_attribute 25, 1
   9              		.eabi_attribute 26, 1
  10              		.eabi_attribute 30, 1
  11              		.eabi_attribute 34, 1
  12              		.eabi_attribute 18, 4
  13              		.file	"main.c"
  14              		.text
  15              	.Ltext0:
  16              		.cfi_sections	.debug_frame
  17              		.section	.text.lcd16x2_i2c_sendCommand,"ax",%progbits
  18              		.align	1
  19              		.arch armv7e-m
  20              		.syntax unified
  21              		.thumb
  22              		.thumb_func
  23              		.fpu fpv4-sp-d16
  25              	lcd16x2_i2c_sendCommand:
  26              	.LVL0:
  27              	.LFB133:
  28              		.file 1 "Inc/lcd16x2_i2c.h"
   1:Inc/lcd16x2_i2c.h **** /*
   2:Inc/lcd16x2_i2c.h ****  * lcd16x2_i2c.h
   3:Inc/lcd16x2_i2c.h ****  *
   4:Inc/lcd16x2_i2c.h ****  *  Created on: Mar 28, 2020
   5:Inc/lcd16x2_i2c.h ****  *      Author: Mohamed Yaqoob
   6:Inc/lcd16x2_i2c.h ****  */
   7:Inc/lcd16x2_i2c.h **** 
   8:Inc/lcd16x2_i2c.h **** #ifndef LCD16X2_I2C_H_
   9:Inc/lcd16x2_i2c.h **** #define LCD16X2_I2C_H_
  10:Inc/lcd16x2_i2c.h **** 
  11:Inc/lcd16x2_i2c.h **** #include "main.h"
  12:Inc/lcd16x2_i2c.h **** #include <stdbool.h>
  13:Inc/lcd16x2_i2c.h **** 
  14:Inc/lcd16x2_i2c.h **** /* Function prototypes */
  15:Inc/lcd16x2_i2c.h **** /**
  16:Inc/lcd16x2_i2c.h ****  * @brief Initialise LCD16x2
  17:Inc/lcd16x2_i2c.h ****  * @param[in] *pI2cHandle - pointer to HAL I2C handle
  18:Inc/lcd16x2_i2c.h ****  */
  19:Inc/lcd16x2_i2c.h **** bool lcd16x2_i2c_init(I2C_HandleTypeDef *pI2cHandle);
  20:Inc/lcd16x2_i2c.h **** 
  21:Inc/lcd16x2_i2c.h **** /**
  22:Inc/lcd16x2_i2c.h ****  * @brief Set cursor position
  23:Inc/lcd16x2_i2c.h ****  * @param[in] row - 0 or 1 for line1 or line2
  24:Inc/lcd16x2_i2c.h ****  * @param[in] col - 0 - 15 (16 columns LCD)
  25:Inc/lcd16x2_i2c.h ****  */
  26:Inc/lcd16x2_i2c.h **** void lcd16x2_i2c_setCursor(uint8_t row, uint8_t col);
  27:Inc/lcd16x2_i2c.h **** /**
  28:Inc/lcd16x2_i2c.h ****  * @brief Move to beginning of 1st line
  29:Inc/lcd16x2_i2c.h ****  */
  30:Inc/lcd16x2_i2c.h **** void lcd16x2_i2c_1stLine(void);
ARM GAS  /var/folders/h5/t6jc6jh127n_294bflj9bdw40000gn/T//ccH8MPpK.s 			page 2


  31:Inc/lcd16x2_i2c.h **** /**
  32:Inc/lcd16x2_i2c.h ****  * @brief Move to beginning of 2nd line
  33:Inc/lcd16x2_i2c.h ****  */
  34:Inc/lcd16x2_i2c.h **** void lcd16x2_i2c_2ndLine(void);
  35:Inc/lcd16x2_i2c.h **** 
  36:Inc/lcd16x2_i2c.h **** /**
  37:Inc/lcd16x2_i2c.h ****  * @brief Select LCD Number of lines mode
  38:Inc/lcd16x2_i2c.h ****  */
  39:Inc/lcd16x2_i2c.h **** void lcd16x2_i2c_TwoLines(void);
  40:Inc/lcd16x2_i2c.h **** void lcd16x2_i2c_OneLine(void);
  41:Inc/lcd16x2_i2c.h **** 
  42:Inc/lcd16x2_i2c.h **** /**
  43:Inc/lcd16x2_i2c.h ****  * @brief Cursor ON/OFF
  44:Inc/lcd16x2_i2c.h ****  */
  45:Inc/lcd16x2_i2c.h **** void lcd16x2_i2c_cursorShow(bool state);
  46:Inc/lcd16x2_i2c.h **** 
  47:Inc/lcd16x2_i2c.h **** /**
  48:Inc/lcd16x2_i2c.h ****  * @brief Display clear
  49:Inc/lcd16x2_i2c.h ****  */
  50:Inc/lcd16x2_i2c.h **** void lcd16x2_i2c_clear(void);
  51:Inc/lcd16x2_i2c.h **** 
  52:Inc/lcd16x2_i2c.h **** /**
  53:Inc/lcd16x2_i2c.h ****  * @brief Display ON/OFF, to hide all characters, but not cl/*
  54:Inc/lcd16x2_i2c.h ****  * lcd16x2_i2c.c
  55:Inc/lcd16x2_i2c.h ****  *
  56:Inc/lcd16x2_i2c.h ****  *  Created on: Mar 28, 2020
  57:Inc/lcd16x2_i2c.h ****  *      Author: Mohamed Yaqoob
  58:Inc/lcd16x2_i2c.h ****  */
  59:Inc/lcd16x2_i2c.h **** 
  60:Inc/lcd16x2_i2c.h **** #include "lcd16x2_i2c.h"
  61:Inc/lcd16x2_i2c.h **** #include <stdio.h>
  62:Inc/lcd16x2_i2c.h **** #include <string.h>
  63:Inc/lcd16x2_i2c.h **** #include <stdarg.h>
  64:Inc/lcd16x2_i2c.h **** 
  65:Inc/lcd16x2_i2c.h **** /* LCD Commands */
  66:Inc/lcd16x2_i2c.h **** #define LCD_CLEARDISPLAY    0x01
  67:Inc/lcd16x2_i2c.h **** #define LCD_RETURNHOME      0x02
  68:Inc/lcd16x2_i2c.h **** #define LCD_ENTRYMODESET    0x04
  69:Inc/lcd16x2_i2c.h **** #define LCD_DISPLAYCONTROL  0x08
  70:Inc/lcd16x2_i2c.h **** #define LCD_CURSORSHIFT     0x10
  71:Inc/lcd16x2_i2c.h **** #define LCD_FUNCTIONSET     0x20
  72:Inc/lcd16x2_i2c.h **** #define LCD_SETCGRAMADDR    0x40
  73:Inc/lcd16x2_i2c.h **** #define LCD_SETDDRAMADDR    0x80
  74:Inc/lcd16x2_i2c.h **** 
  75:Inc/lcd16x2_i2c.h **** /* Commands bitfields */
  76:Inc/lcd16x2_i2c.h **** //1) Entry mode Bitfields
  77:Inc/lcd16x2_i2c.h **** #define LCD_ENTRY_SH      0x01
  78:Inc/lcd16x2_i2c.h **** #define LCD_ENTRY_ID      0x02
  79:Inc/lcd16x2_i2c.h **** //2) Display control
  80:Inc/lcd16x2_i2c.h **** #define LCD_DISPLAY_B     0x01
  81:Inc/lcd16x2_i2c.h **** #define LCD_DISPLAY_C     0x02
  82:Inc/lcd16x2_i2c.h **** #define LCD_DISPLAY_D     0x04
  83:Inc/lcd16x2_i2c.h **** //3) Shift control
  84:Inc/lcd16x2_i2c.h **** #define LCD_SHIFT_RL      0x04
  85:Inc/lcd16x2_i2c.h **** #define LCD_SHIFT_SC      0x08
  86:Inc/lcd16x2_i2c.h **** //4) Function set control
  87:Inc/lcd16x2_i2c.h **** #define LCD_FUNCTION_F    0x04
ARM GAS  /var/folders/h5/t6jc6jh127n_294bflj9bdw40000gn/T//ccH8MPpK.s 			page 3


  88:Inc/lcd16x2_i2c.h **** #define LCD_FUNCTION_N    0x08
  89:Inc/lcd16x2_i2c.h **** #define LCD_FUNCTION_DL   0x10
  90:Inc/lcd16x2_i2c.h **** 
  91:Inc/lcd16x2_i2c.h **** /* I2C Control bits */
  92:Inc/lcd16x2_i2c.h **** #define LCD_RS        (1 << 0)
  93:Inc/lcd16x2_i2c.h **** #define LCD_RW        (1 << 1)
  94:Inc/lcd16x2_i2c.h **** #define LCD_EN        (1 << 2)
  95:Inc/lcd16x2_i2c.h **** #define LCD_BK_LIGHT  (1 << 3)
  96:Inc/lcd16x2_i2c.h **** 
  97:Inc/lcd16x2_i2c.h **** /* Library variables */
  98:Inc/lcd16x2_i2c.h **** static I2C_HandleTypeDef* lcd16x2_i2cHandle;
  99:Inc/lcd16x2_i2c.h **** static uint8_t LCD_I2C_SLAVE_ADDRESS=0;
 100:Inc/lcd16x2_i2c.h **** #define LCD_I2C_SLAVE_ADDRESS_0  0x4E
 101:Inc/lcd16x2_i2c.h **** #define LCD_I2C_SLAVE_ADDRESS_1  0x7E
 102:Inc/lcd16x2_i2c.h **** 
 103:Inc/lcd16x2_i2c.h **** /* Private functions */
 104:Inc/lcd16x2_i2c.h **** static void lcd16x2_i2c_sendCommand(uint8_t command)
 105:Inc/lcd16x2_i2c.h **** {
  29              		.loc 1 105 1 view -0
  30              		.cfi_startproc
  31              		@ args = 0, pretend = 0, frame = 8
  32              		@ frame_needed = 0, uses_anonymous_args = 0
  33              		.loc 1 105 1 is_stmt 0 view .LVU1
  34 0000 00B5     		push	{lr}
  35              	.LCFI0:
  36              		.cfi_def_cfa_offset 4
  37              		.cfi_offset 14, -4
  38 0002 85B0     		sub	sp, sp, #20
  39              	.LCFI1:
  40              		.cfi_def_cfa_offset 24
 106:Inc/lcd16x2_i2c.h ****   const uint8_t command_0_3 = (0xF0 & (command<<4));
  41              		.loc 1 106 3 is_stmt 1 view .LVU2
  42              		.loc 1 106 47 is_stmt 0 view .LVU3
  43 0004 0301     		lsls	r3, r0, #4
  44              		.loc 1 106 17 view .LVU4
  45 0006 DBB2     		uxtb	r3, r3
  46              	.LVL1:
 107:Inc/lcd16x2_i2c.h ****   const uint8_t command_4_7 = (0xF0 & command);
  47              		.loc 1 107 3 is_stmt 1 view .LVU5
  48              		.loc 1 107 17 is_stmt 0 view .LVU6
  49 0008 00F0F000 		and	r0, r0, #240
  50              	.LVL2:
 108:Inc/lcd16x2_i2c.h ****   uint8_t i2cData[4] =
  51              		.loc 1 108 3 is_stmt 1 view .LVU7
  52              		.loc 1 108 11 is_stmt 0 view .LVU8
  53 000c 40F00C02 		orr	r2, r0, #12
  54 0010 8DF80C20 		strb	r2, [sp, #12]
  55 0014 40F00800 		orr	r0, r0, #8
  56              	.LVL3:
  57              		.loc 1 108 11 view .LVU9
  58 0018 8DF80D00 		strb	r0, [sp, #13]
  59 001c 43F00C02 		orr	r2, r3, #12
  60 0020 8DF80E20 		strb	r2, [sp, #14]
  61 0024 43F00803 		orr	r3, r3, #8
  62              	.LVL4:
  63              		.loc 1 108 11 view .LVU10
  64 0028 8DF80F30 		strb	r3, [sp, #15]
ARM GAS  /var/folders/h5/t6jc6jh127n_294bflj9bdw40000gn/T//ccH8MPpK.s 			page 4


 109:Inc/lcd16x2_i2c.h ****   {
 110:Inc/lcd16x2_i2c.h ****       command_4_7 | LCD_EN | LCD_BK_LIGHT,
 111:Inc/lcd16x2_i2c.h ****       command_4_7 | LCD_BK_LIGHT,
 112:Inc/lcd16x2_i2c.h ****       command_0_3 | LCD_EN | LCD_BK_LIGHT,
 113:Inc/lcd16x2_i2c.h ****       command_0_3 | LCD_BK_LIGHT,
 114:Inc/lcd16x2_i2c.h ****   };
 115:Inc/lcd16x2_i2c.h ****   HAL_I2C_Master_Transmit(lcd16x2_i2cHandle, LCD_I2C_SLAVE_ADDRESS, i2cData, 4, 200);
  65              		.loc 1 115 3 is_stmt 1 view .LVU11
  66 002c C823     		movs	r3, #200
  67 002e 0093     		str	r3, [sp]
  68 0030 0423     		movs	r3, #4
  69 0032 03AA     		add	r2, sp, #12
  70 0034 0449     		ldr	r1, .L3
  71 0036 0978     		ldrb	r1, [r1]	@ zero_extendqisi2
  72 0038 0448     		ldr	r0, .L3+4
  73 003a 0068     		ldr	r0, [r0]
  74 003c FFF7FEFF 		bl	HAL_I2C_Master_Transmit
  75              	.LVL5:
 116:Inc/lcd16x2_i2c.h **** }
  76              		.loc 1 116 1 is_stmt 0 view .LVU12
  77 0040 05B0     		add	sp, sp, #20
  78              	.LCFI2:
  79              		.cfi_def_cfa_offset 4
  80              		@ sp needed
  81 0042 5DF804FB 		ldr	pc, [sp], #4
  82              	.L4:
  83 0046 00BF     		.align	2
  84              	.L3:
  85 0048 00000000 		.word	.LANCHOR0
  86 004c 00000000 		.word	.LANCHOR1
  87              		.cfi_endproc
  88              	.LFE133:
  90              		.section	.text.lcd16x2_i2c_sendData,"ax",%progbits
  91              		.align	1
  92              		.syntax unified
  93              		.thumb
  94              		.thumb_func
  95              		.fpu fpv4-sp-d16
  97              	lcd16x2_i2c_sendData:
  98              	.LVL6:
  99              	.LFB134:
 117:Inc/lcd16x2_i2c.h **** 
 118:Inc/lcd16x2_i2c.h **** static void lcd16x2_i2c_sendData(uint8_t data)
 119:Inc/lcd16x2_i2c.h **** {
 100              		.loc 1 119 1 is_stmt 1 view -0
 101              		.cfi_startproc
 102              		@ args = 0, pretend = 0, frame = 8
 103              		@ frame_needed = 0, uses_anonymous_args = 0
 104              		.loc 1 119 1 is_stmt 0 view .LVU14
 105 0000 00B5     		push	{lr}
 106              	.LCFI3:
 107              		.cfi_def_cfa_offset 4
 108              		.cfi_offset 14, -4
 109 0002 85B0     		sub	sp, sp, #20
 110              	.LCFI4:
 111              		.cfi_def_cfa_offset 24
 120:Inc/lcd16x2_i2c.h ****   const uint8_t data_0_3 = (0xF0 & (data<<4));
ARM GAS  /var/folders/h5/t6jc6jh127n_294bflj9bdw40000gn/T//ccH8MPpK.s 			page 5


 112              		.loc 1 120 3 is_stmt 1 view .LVU15
 113              		.loc 1 120 41 is_stmt 0 view .LVU16
 114 0004 0301     		lsls	r3, r0, #4
 115              		.loc 1 120 17 view .LVU17
 116 0006 DBB2     		uxtb	r3, r3
 117              	.LVL7:
 121:Inc/lcd16x2_i2c.h ****   const uint8_t data_4_7 = (0xF0 & data);
 118              		.loc 1 121 3 is_stmt 1 view .LVU18
 119              		.loc 1 121 17 is_stmt 0 view .LVU19
 120 0008 00F0F000 		and	r0, r0, #240
 121              	.LVL8:
 122:Inc/lcd16x2_i2c.h ****   uint8_t i2cData[4] =
 122              		.loc 1 122 3 is_stmt 1 view .LVU20
 123              		.loc 1 122 11 is_stmt 0 view .LVU21
 124 000c 40F00D02 		orr	r2, r0, #13
 125 0010 8DF80C20 		strb	r2, [sp, #12]
 126 0014 40F00900 		orr	r0, r0, #9
 127              	.LVL9:
 128              		.loc 1 122 11 view .LVU22
 129 0018 8DF80D00 		strb	r0, [sp, #13]
 130 001c 43F00D02 		orr	r2, r3, #13
 131 0020 8DF80E20 		strb	r2, [sp, #14]
 132 0024 43F00903 		orr	r3, r3, #9
 133              	.LVL10:
 134              		.loc 1 122 11 view .LVU23
 135 0028 8DF80F30 		strb	r3, [sp, #15]
 123:Inc/lcd16x2_i2c.h ****   {
 124:Inc/lcd16x2_i2c.h ****       data_4_7 | LCD_EN | LCD_BK_LIGHT | LCD_RS,
 125:Inc/lcd16x2_i2c.h ****       data_4_7 | LCD_BK_LIGHT | LCD_RS,
 126:Inc/lcd16x2_i2c.h ****       data_0_3 | LCD_EN | LCD_BK_LIGHT | LCD_RS,
 127:Inc/lcd16x2_i2c.h ****       data_0_3 | LCD_BK_LIGHT | LCD_RS,
 128:Inc/lcd16x2_i2c.h ****   };
 129:Inc/lcd16x2_i2c.h ****   HAL_I2C_Master_Transmit(lcd16x2_i2cHandle, LCD_I2C_SLAVE_ADDRESS, i2cData, 4, 200);
 136              		.loc 1 129 3 is_stmt 1 view .LVU24
 137 002c C823     		movs	r3, #200
 138 002e 0093     		str	r3, [sp]
 139 0030 0423     		movs	r3, #4
 140 0032 03AA     		add	r2, sp, #12
 141 0034 0449     		ldr	r1, .L7
 142 0036 0978     		ldrb	r1, [r1]	@ zero_extendqisi2
 143 0038 0448     		ldr	r0, .L7+4
 144 003a 0068     		ldr	r0, [r0]
 145 003c FFF7FEFF 		bl	HAL_I2C_Master_Transmit
 146              	.LVL11:
 130:Inc/lcd16x2_i2c.h **** }
 147              		.loc 1 130 1 is_stmt 0 view .LVU25
 148 0040 05B0     		add	sp, sp, #20
 149              	.LCFI5:
 150              		.cfi_def_cfa_offset 4
 151              		@ sp needed
 152 0042 5DF804FB 		ldr	pc, [sp], #4
 153              	.L8:
 154 0046 00BF     		.align	2
 155              	.L7:
 156 0048 00000000 		.word	.LANCHOR0
 157 004c 00000000 		.word	.LANCHOR1
 158              		.cfi_endproc
ARM GAS  /var/folders/h5/t6jc6jh127n_294bflj9bdw40000gn/T//ccH8MPpK.s 			page 6


 159              	.LFE134:
 161              		.section	.text.MX_GPIO_Init,"ax",%progbits
 162              		.align	1
 163              		.syntax unified
 164              		.thumb
 165              		.thumb_func
 166              		.fpu fpv4-sp-d16
 168              	MX_GPIO_Init:
 169              	.LFB164:
 170              		.file 2 "Src/main.c"
   1:Src/main.c    **** /* USER CODE BEGIN Header */
   2:Src/main.c    **** /**
   3:Src/main.c    ****   ******************************************************************************
   4:Src/main.c    ****   * @file           : main.c
   5:Src/main.c    ****   * @brief          : Main program body
   6:Src/main.c    ****   ******************************************************************************
   7:Src/main.c    ****   * @attention
   8:Src/main.c    ****   *
   9:Src/main.c    ****   * <h2><center>&copy; Copyright (c) 2021 STMicroelectronics.
  10:Src/main.c    ****   * All rights reserved.</center></h2>
  11:Src/main.c    ****   *
  12:Src/main.c    ****   * This software component is licensed by ST under BSD 3-Clause license,
  13:Src/main.c    ****   * the "License"; You may not use this file except in compliance with the
  14:Src/main.c    ****   * License. You may obtain a copy of the License at:
  15:Src/main.c    ****   *                        opensource.org/licenses/BSD-3-Clause
  16:Src/main.c    ****   *
  17:Src/main.c    ****   ******************************************************************************
  18:Src/main.c    ****   */
  19:Src/main.c    **** /* USER CODE END Header */
  20:Src/main.c    **** /* Includes ------------------------------------------------------------------*/
  21:Src/main.c    **** #include "main.h"
  22:Src/main.c    **** 
  23:Src/main.c    **** /* Private includes ----------------------------------------------------------*/
  24:Src/main.c    **** /* USER CODE BEGIN Includes */
  25:Src/main.c    **** #include "lcd16x2_i2c.h"
  26:Src/main.c    **** #include "ADXL345.h"
  27:Src/main.c    **** /* USER CODE END Includes */
  28:Src/main.c    **** 
  29:Src/main.c    **** /* Private typedef -----------------------------------------------------------*/
  30:Src/main.c    **** /* USER CODE BEGIN PTD */
  31:Src/main.c    **** #define GPIORealyPIN GPIO_PIN_5
  32:Src/main.c    **** #define GPIO_Relay_side GPIOB
  33:Src/main.c    **** /* USER CODE END PTD */
  34:Src/main.c    **** 
  35:Src/main.c    **** /* Private define ------------------------------------------------------------*/
  36:Src/main.c    **** /* USER CODE BEGIN PD */
  37:Src/main.c    **** /* USER CODE END PD */
  38:Src/main.c    **** 
  39:Src/main.c    **** /* Private macro -------------------------------------------------------------*/
  40:Src/main.c    **** /* USER CODE BEGIN PM */
  41:Src/main.c    **** 
  42:Src/main.c    **** /* USER CODE END PM */
  43:Src/main.c    **** 
  44:Src/main.c    **** /* Private variables ---------------------------------------------------------*/
  45:Src/main.c    **** I2C_HandleTypeDef hi2c1;
  46:Src/main.c    **** 
  47:Src/main.c    **** SPI_HandleTypeDef hspi1;
ARM GAS  /var/folders/h5/t6jc6jh127n_294bflj9bdw40000gn/T//ccH8MPpK.s 			page 7


  48:Src/main.c    **** 
  49:Src/main.c    **** UART_HandleTypeDef huart2;
  50:Src/main.c    **** 
  51:Src/main.c    **** /* USER CODE BEGIN PV */
  52:Src/main.c    **** ADXL345_SPI_I2C adxl;
  53:Src/main.c    **** uint8_t data_rec[6];
  54:Src/main.c    **** int16_t x,y,z;
  55:Src/main.c    **** float xg,yg,zg;
  56:Src/main.c    **** /* USER CODE END PV */
  57:Src/main.c    **** 
  58:Src/main.c    **** /* Private function prototypes -----------------------------------------------*/
  59:Src/main.c    **** void SystemClock_Config(void);
  60:Src/main.c    **** static void MX_GPIO_Init(void);
  61:Src/main.c    **** static void MX_I2C1_Init(void);
  62:Src/main.c    **** static void MX_USART2_UART_Init(void);
  63:Src/main.c    **** static void MX_SPI1_Init(void);
  64:Src/main.c    **** /* USER CODE BEGIN PFP */
  65:Src/main.c    **** 
  66:Src/main.c    **** /* USER CODE END PFP */
  67:Src/main.c    **** 
  68:Src/main.c    **** /* Private user code ---------------------------------------------------------*/
  69:Src/main.c    **** /* USER CODE BEGIN 0 */
  70:Src/main.c    **** void adxl_write(uint8_t address, uint8_t value)
  71:Src/main.c    **** {
  72:Src/main.c    ****   uint8_t data[2];
  73:Src/main.c    ****   data[0] = address|0x40;
  74:Src/main.c    ****   data[1] = value;
  75:Src/main.c    ****   HAL_GPIO_WritePin(GPIOB, GPIO_PIN_6, GPIO_PIN_RESET);
  76:Src/main.c    ****   HAL_SPI_Transmit(&hspi1, data, 2, 100);
  77:Src/main.c    ****   HAL_GPIO_WritePin(GPIOB, GPIO_PIN_6, GPIO_PIN_SET);
  78:Src/main.c    **** }
  79:Src/main.c    **** 
  80:Src/main.c    **** void adxl_read(uint8_t address)
  81:Src/main.c    **** {
  82:Src/main.c    ****   // address |= 0x80;
  83:Src/main.c    ****   // address |= 0x40;
  84:Src/main.c    ****   HAL_GPIO_WritePin(GPIOB, GPIO_PIN_6, GPIO_PIN_RESET);
  85:Src/main.c    ****   HAL_SPI_Transmit(&hspi1, &address, 1, 10);
  86:Src/main.c    ****   HAL_SPI_Receive(&hspi1, data_rec, 6, 10);
  87:Src/main.c    ****   HAL_GPIO_WritePin(GPIOB, GPIO_PIN_6, GPIO_PIN_SET);
  88:Src/main.c    **** }
  89:Src/main.c    **** void adxl_init(void)
  90:Src/main.c    **** {
  91:Src/main.c    ****   adxl_write(0x2d, 0x00); 
  92:Src/main.c    ****   adxl_write(0x2d, 0x08);
  93:Src/main.c    ****   adxl_write(0x31, 0x01);
  94:Src/main.c    **** }
  95:Src/main.c    **** void quarterNote(void)
  96:Src/main.c    ****   {
  97:Src/main.c    ****     HAL_GPIO_TogglePin(GPIOB, GPIO_PIN_5);
  98:Src/main.c    ****     HAL_Delay(300);
  99:Src/main.c    ****   }
 100:Src/main.c    **** 
 101:Src/main.c    ****   void eighthNote(void)
 102:Src/main.c    ****   {
 103:Src/main.c    ****     HAL_GPIO_TogglePin(GPIOB, GPIO_PIN_5);
 104:Src/main.c    ****     HAL_Delay(150);
ARM GAS  /var/folders/h5/t6jc6jh127n_294bflj9bdw40000gn/T//ccH8MPpK.s 			page 8


 105:Src/main.c    ****   }
 106:Src/main.c    **** 
 107:Src/main.c    ****   void refrain(void)
 108:Src/main.c    ****   {
 109:Src/main.c    ****     quarterNote();
 110:Src/main.c    ****     eighthNote();
 111:Src/main.c    ****     quarterNote();
 112:Src/main.c    ****     eighthNote();
 113:Src/main.c    ****     quarterNote();
 114:Src/main.c    ****   }
 115:Src/main.c    **** 
 116:Src/main.c    ****   void firstTact(void)
 117:Src/main.c    ****   {
 118:Src/main.c    ****     quarterNote();
 119:Src/main.c    ****     quarterNote();	
 120:Src/main.c    ****   }
 121:Src/main.c    **** 
 122:Src/main.c    ****   void secondTact(void)
 123:Src/main.c    ****   {
 124:Src/main.c    ****     eighthNote();
 125:Src/main.c    ****     eighthNote();
 126:Src/main.c    ****     quarterNote();	
 127:Src/main.c    ****   }
 128:Src/main.c    **** 
 129:Src/main.c    ****   void playRythm(void)
 130:Src/main.c    ****   {
 131:Src/main.c    ****     refrain();
 132:Src/main.c    ****     firstTact();
 133:Src/main.c    ****     refrain();
 134:Src/main.c    ****     secondTact();
 135:Src/main.c    ****   }
 136:Src/main.c    **** 
 137:Src/main.c    ****   void playDelay(uint16_t *delayed){
 138:Src/main.c    ****     while(1){
 139:Src/main.c    ****       int x,y,z;
 140:Src/main.c    ****       ADXL345readAccel_x_y_z(&adxl, &x, &y, &z); 
 141:Src/main.c    ****       if(z < -5)
 142:Src/main.c    ****       {
 143:Src/main.c    ****         break;
 144:Src/main.c    ****       }
 145:Src/main.c    ****       HAL_GPIO_TogglePin(GPIOB, GPIO_PIN_5);
 146:Src/main.c    ****       char measured_delay[6];
 147:Src/main.c    ****       sprintf(measured_delay, "%d \r\n", *delayed);
 148:Src/main.c    ****       HAL_UART_Transmit(&huart2, (uint16_t *)&measured_delay,sizeof(measured_delay), 0xFFFF);
 149:Src/main.c    ****       HAL_Delay(*delayed);
 150:Src/main.c    ****     }
 151:Src/main.c    ****   }
 152:Src/main.c    **** 
 153:Src/main.c    ****   uint8_t listen_for_rythm()
 154:Src/main.c    ****   {
 155:Src/main.c    ****     uint16_t timerTap = 0;
 156:Src/main.c    ****     uint8_t delayStep = 45;
 157:Src/main.c    ****     
 158:Src/main.c    ****     while(1)
 159:Src/main.c    ****     {
 160:Src/main.c    ****       
 161:Src/main.c    ****       int x,y,z;
ARM GAS  /var/folders/h5/t6jc6jh127n_294bflj9bdw40000gn/T//ccH8MPpK.s 			page 9


 162:Src/main.c    ****       char gravity2Data[18];
 163:Src/main.c    ****       ADXL345readAccel_x_y_z(&adxl, &x, &y, &z); 
 164:Src/main.c    ****       sprintf(gravity2Data, "x=%d y=%d z=%d \r\n", x,y,z);
 165:Src/main.c    ****       HAL_UART_Transmit(&huart2, (uint8_t *)&gravity2Data,sizeof(gravity2Data), 0xFFFF);
 166:Src/main.c    **** 
 167:Src/main.c    ****       if(z < 0)
 168:Src/main.c    ****       {
 169:Src/main.c    ****         break;
 170:Src/main.c    ****       }
 171:Src/main.c    ****       if(timerTap > 0)
 172:Src/main.c    ****       {
 173:Src/main.c    ****         timerTap += delayStep;
 174:Src/main.c    ****       }
 175:Src/main.c    ****       if(y > 10 && timerTap == 0)
 176:Src/main.c    ****       {
 177:Src/main.c    ****         timerTap += 1;
 178:Src/main.c    ****         char TapDetection[] = "Tap Detected";
 179:Src/main.c    ****         HAL_UART_Transmit(&huart2, (uint8_t *)&TapDetection,sizeof(TapDetection), 0xFFFF);
 180:Src/main.c    ****       }
 181:Src/main.c    ****       else if(y > 10 && timerTap > 200)
 182:Src/main.c    ****       {
 183:Src/main.c    ****         timerTap += delayStep;
 184:Src/main.c    ****         char SecondTapDetection[] = "Second Tap Detected";
 185:Src/main.c    ****         char measured_delay[6];
 186:Src/main.c    ****         sprintf(measured_delay, "%d \r\n", timerTap);
 187:Src/main.c    ****         HAL_UART_Transmit(&huart2, (uint8_t *)&SecondTapDetection,sizeof(SecondTapDetection), 0xFFF
 188:Src/main.c    ****         HAL_UART_Transmit(&huart2, (uint8_t *)&measured_delay,sizeof(measured_delay), 0xFFFF);
 189:Src/main.c    ****         break;
 190:Src/main.c    ****       }
 191:Src/main.c    ****       
 192:Src/main.c    ****       HAL_Delay(delayStep);
 193:Src/main.c    ****     }
 194:Src/main.c    **** 
 195:Src/main.c    ****     if(timerTap > 300)
 196:Src/main.c    ****     {
 197:Src/main.c    ****       char measured_delay[6];
 198:Src/main.c    ****       sprintf(measured_delay, "%d \r\n", timerTap);
 199:Src/main.c    ****       char Playing[] = "Playing";
 200:Src/main.c    ****       HAL_UART_Transmit(&huart2, (uint8_t *)&Playing,sizeof(Playing), 0xFFFF);
 201:Src/main.c    ****       HAL_UART_Transmit(&huart2, (uint8_t *)&measured_delay,sizeof(measured_delay), 0xFFFF);
 202:Src/main.c    ****       lcd16x2_i2c_printf(measured_delay);
 203:Src/main.c    ****       HAL_Delay(2000);
 204:Src/main.c    ****       playDelay(&timerTap);
 205:Src/main.c    ****     }
 206:Src/main.c    ****   }
 207:Src/main.c    **** 
 208:Src/main.c    ****   void scanI2C(void){
 209:Src/main.c    ****     printf("Scanning I2C bus:\r\n");
 210:Src/main.c    ****     char scanningMsg2Data[21] = "Scanning I2C bus: \r\n";
 211:Src/main.c    ****     HAL_UART_Transmit(&huart2, (uint8_t *)&scanningMsg2Data,sizeof(scanningMsg2Data), 0xFFFF);
 212:Src/main.c    ****     HAL_StatusTypeDef result;
 213:Src/main.c    ****     uint8_t i;
 214:Src/main.c    ****     for (i=1; i<128; i++)
 215:Src/main.c    ****     {
 216:Src/main.c    ****       result = HAL_I2C_IsDeviceReady(&hi2c1, (uint16_t)(i<<1), 2, 2);
 217:Src/main.c    ****       if (result != HAL_OK) // HAL_ERROR or HAL_BUSY or HAL_TIMEOUT
 218:Src/main.c    ****       {
ARM GAS  /var/folders/h5/t6jc6jh127n_294bflj9bdw40000gn/T//ccH8MPpK.s 			page 10


 219:Src/main.c    ****         printf("."); // No ACK received at that address
 220:Src/main.c    ****       }
 221:Src/main.c    ****       if (result == HAL_OK)
 222:Src/main.c    ****       {
 223:Src/main.c    ****         printf("0x%X", i); 
 224:Src/main.c    ****         char port2Data[50];
 225:Src/main.c    ****         sprintf(port2Data, "0x%X\r\n", i);
 226:Src/main.c    ****         HAL_UART_Transmit(&huart2, (uint8_t *)&port2Data,sizeof(port2Data), 0xFFFF);// Received an 
 227:Src/main.c    **** 
 228:Src/main.c    ****       }
 229:Src/main.c    ****     }
 230:Src/main.c    ****     printf("\r\n");
 231:Src/main.c    ****   }
 232:Src/main.c    **** 
 233:Src/main.c    **** /* USER CODE END 0 */
 234:Src/main.c    **** 
 235:Src/main.c    **** /**
 236:Src/main.c    ****   * @brief  The application entry point.
 237:Src/main.c    ****   * @retval int
 238:Src/main.c    ****   */
 239:Src/main.c    **** int main(void)
 240:Src/main.c    **** {
 241:Src/main.c    ****   /* USER CODE BEGIN 1 */
 242:Src/main.c    **** 
 243:Src/main.c    ****   /* USER CODE END 1 */
 244:Src/main.c    **** 
 245:Src/main.c    ****   /* MCU Configuration--------------------------------------------------------*/
 246:Src/main.c    **** 
 247:Src/main.c    ****   /* Reset of all peripherals, Initializes the Flash interface and the Systick. */
 248:Src/main.c    ****   HAL_Init();
 249:Src/main.c    **** 
 250:Src/main.c    ****   /* USER CODE BEGIN Init */
 251:Src/main.c    **** 
 252:Src/main.c    ****   /* USER CODE END Init */
 253:Src/main.c    **** 
 254:Src/main.c    ****   /* Configure the system clock */
 255:Src/main.c    ****   SystemClock_Config();
 256:Src/main.c    **** 
 257:Src/main.c    ****   /* USER CODE BEGIN SysInit */
 258:Src/main.c    **** 
 259:Src/main.c    ****   /* USER CODE END SysInit */
 260:Src/main.c    **** 
 261:Src/main.c    ****   /* Initialize all configured peripherals */
 262:Src/main.c    ****   MX_GPIO_Init();
 263:Src/main.c    ****   MX_I2C1_Init();
 264:Src/main.c    ****   MX_USART2_UART_Init();
 265:Src/main.c    ****   MX_SPI1_Init();
 266:Src/main.c    **** 
 267:Src/main.c    **** 
 268:Src/main.c    ****   /* USER CODE BEGIN 2 */
 269:Src/main.c    **** 
 270:Src/main.c    ****   ADXL345_SPI(&adxl, &hspi1, GPIOB, GPIO_PIN_6); 
 271:Src/main.c    ****   ADXL345powerOn(&adxl);                              // Power on the ADXL345
 272:Src/main.c    **** 	
 273:Src/main.c    ****   ADXL345setRangeSetting(&adxl, 16);                  // Give the range settings
 274:Src/main.c    **** 	                                              // Accepted values are 2g, 4g, 8g or 16g
 275:Src/main.c    **** 	                                              // Higher Values = Wider Measurement Range
ARM GAS  /var/folders/h5/t6jc6jh127n_294bflj9bdw40000gn/T//ccH8MPpK.s 			page 11


 276:Src/main.c    **** 	                                              // Lower Values = Greater Sensitivity
 277:Src/main.c    **** 
 278:Src/main.c    ****   ADXL345setSpiBit(&adxl, 0);                         // Configure the device to be in 4 wire SPI m
 279:Src/main.c    **** 	                                              // Default: Set to 1
 280:Src/main.c    **** 	                                              // SPI pins on the ATMega328: 11, 12 and 13 as refer
 281:Src/main.c    **** 
 282:Src/main.c    ****   ADXL345setActivityXYZ(&adxl, 1, 0, 0);              // Set to activate movement detection in the 
 283:Src/main.c    ****   ADXL345setActivityThreshold(&adxl, 75);             // 62.5mg per increment   // Set activity   /
 284:Src/main.c    **** 
 285:Src/main.c    ****   ADXL345setInactivityXYZ(&adxl, 1, 0, 0);            // Set to detect inactivity in all the axes "
 286:Src/main.c    ****   ADXL345setInactivityThreshold(&adxl, 75);           // 62.5mg per increment   // Set inactivity /
 287:Src/main.c    ****   ADXL345setTimeInactivity(&adxl, 10);                // How many seconds of no activity is inactiv
 288:Src/main.c    **** 
 289:Src/main.c    ****   ADXL345setTapDetectionOnXYZ(&adxl, 0, 1, 0);        // Detect taps in the directions turned ON "a
 290:Src/main.c    **** 
 291:Src/main.c    ****   // Set values for what is considered a TAP and what is a DOUBLE TAP (0-255)
 292:Src/main.c    ****   ADXL345setTapThreshold(&adxl, 100);                 // 62.5 mg per increment
 293:Src/main.c    ****   ADXL345setTapDuration(&adxl, 20);                  // 625 μs per increment
 294:Src/main.c    ****   ADXL345setDoubleTapLatency(&adxl, 200);             // 1.25 ms per increment
 295:Src/main.c    ****   ADXL345setDoubleTapWindow(&adxl, 400);             // 1.25 ms per increment
 296:Src/main.c    **** 
 297:Src/main.c    ****   // Set values for what is considered FREE FALL (0-255)
 298:Src/main.c    ****   ADXL345setFreeFallThreshold(&adxl, 7);             // (5 - 9) recommended - 62.5mg per increment
 299:Src/main.c    ****   ADXL345setFreeFallDuration(&adxl, 30);             // (20 - 70) recommended - 5ms per increment
 300:Src/main.c    **** 
 301:Src/main.c    ****   ADXL345InactivityINT(&adxl, 1);
 302:Src/main.c    ****   ADXL345ActivityINT(&adxl, 1);
 303:Src/main.c    ****   ADXL345FreeFallINT(&adxl, 1);
 304:Src/main.c    ****   ADXL345doubleTapINT(&adxl, 1);
 305:Src/main.c    ****   ADXL345singleTapINT(&adxl, 1);
 306:Src/main.c    **** 
 307:Src/main.c    ****   if(lcd16x2_i2c_init(&hi2c1))
 308:Src/main.c    ****   {
 309:Src/main.c    ****     char init2Data[] = "I2C initialized\r\n";
 310:Src/main.c    ****     HAL_UART_Transmit(&huart2, (uint8_t *)&init2Data,sizeof(init2Data), 0xFFFF);
 311:Src/main.c    ****   }
 312:Src/main.c    ****   
 313:Src/main.c    ****   lcd16x2_i2c_printf("hello world");
 314:Src/main.c    ****   char uart2Data[24] = "Connected to UART Two\r\n";
 315:Src/main.c    ****    /*
 316:Src/main.c    ****     * Output to uart2
 317:Src/main.c    ****     * use screen or putty or whatever terminal software
 318:Src/main.c    ****     * 8N1 115200
 319:Src/main.c    ****     */
 320:Src/main.c    ****   HAL_UART_Transmit(&huart2, (uint8_t *)&uart2Data,sizeof(uart2Data), 0xFFFF);
 321:Src/main.c    **** 
 322:Src/main.c    ****  	printf("\r\n");
 323:Src/main.c    **** 
 324:Src/main.c    ****  	printf("Scanning I2C bus:\r\n");
 325:Src/main.c    ****   char scanningMsg2Data[21] = "Scanning I2C bus: \r\n";
 326:Src/main.c    ****   HAL_UART_Transmit(&huart2, (uint8_t *)&scanningMsg2Data,sizeof(scanningMsg2Data), 0xFFFF);
 327:Src/main.c    **** 	HAL_StatusTypeDef result;
 328:Src/main.c    ****  	// uint8_t i;
 329:Src/main.c    ****  	// for (i=1; i<128; i++)
 330:Src/main.c    ****  	// {
 331:Src/main.c    ****  	//   /*
 332:Src/main.c    ****  	//    * the HAL wants a left aligned i2c address
ARM GAS  /var/folders/h5/t6jc6jh127n_294bflj9bdw40000gn/T//ccH8MPpK.s 			page 12


 333:Src/main.c    ****  	//    * &hi2c1 is the handle
 334:Src/main.c    ****  	//    * (uint16_t)(i<<1) is the i2c address left aligned
 335:Src/main.c    ****  	//    * retries 2
 336:Src/main.c    ****  	//    * timeout 2
 337:Src/main.c    ****  	//    */
 338:Src/main.c    ****  	//   result = HAL_I2C_IsDeviceReady(&hi2c1, (uint16_t)(i<<1), 2, 2);
 339:Src/main.c    ****  	//   if (result != HAL_OK) // HAL_ERROR or HAL_BUSY or HAL_TIMEOUT
 340:Src/main.c    ****  	//   {
 341:Src/main.c    ****  	// 	  printf("."); // No ACK received at that address
 342:Src/main.c    ****  	//   }
 343:Src/main.c    ****  	//   if (result == HAL_OK)
 344:Src/main.c    ****  	//   {
 345:Src/main.c    ****  	// 	  printf("0x%X", i); 
 346:Src/main.c    ****   //     char port2Data[50];
 347:Src/main.c    ****   //     sprintf(port2Data, "0x%X\r\n", i);
 348:Src/main.c    ****   //     HAL_UART_Transmit(&huart2, (uint8_t *)&port2Data,sizeof(port2Data), 0xFFFF);// Received an
 349:Src/main.c    ****  	//   }
 350:Src/main.c    ****  	// }
 351:Src/main.c    ****  	// printf("\r\n");
 352:Src/main.c    ****   
 353:Src/main.c    **** 
 354:Src/main.c    ****   bool devReady = false;
 355:Src/main.c    ****   bool tap = false;
 356:Src/main.c    **** 
 357:Src/main.c    ****   /* USER CODE END 2 */
 358:Src/main.c    ****   
 359:Src/main.c    ****     /* Infinite loop */
 360:Src/main.c    ****   /* USER CODE BEGIN WHILE */
 361:Src/main.c    ****   while (1)
 362:Src/main.c    ****   {
 363:Src/main.c    ****     /* USER CODE END WHILE */
 364:Src/main.c    **** 
 365:Src/main.c    ****     /* USER CODE BEGIN 3 */
 366:Src/main.c    ****     
 367:Src/main.c    ****     int x,y,z;
 368:Src/main.c    ****     ADXL345readAccel_x_y_z(&adxl, &x, &y, &z); 
 369:Src/main.c    ****     if(z < 0)
 370:Src/main.c    ****     {
 371:Src/main.c    ****       playRythm();
 372:Src/main.c    ****     }
 373:Src/main.c    ****     else{
 374:Src/main.c    ****       listen_for_rythm();
 375:Src/main.c    ****     }
 376:Src/main.c    **** 
 377:Src/main.c    ****     char gravity2Data[18];
 378:Src/main.c    ****     sprintf(gravity2Data, "x=%d y=%d z=%d \r\n", x,y,z);
 379:Src/main.c    ****     HAL_UART_Transmit(&huart2, (uint8_t *)&gravity2Data,sizeof(gravity2Data), 0xFFFF);// Received a
 380:Src/main.c    ****     // HAL_Delay(350);
 381:Src/main.c    ****   }
 382:Src/main.c    ****   /* USER CODE END 3 */
 383:Src/main.c    **** }
 384:Src/main.c    **** 
 385:Src/main.c    **** /**
 386:Src/main.c    ****   * @brief System Clock Configuration
 387:Src/main.c    ****   * @retval None
 388:Src/main.c    ****   */
 389:Src/main.c    **** void SystemClock_Config(void)
ARM GAS  /var/folders/h5/t6jc6jh127n_294bflj9bdw40000gn/T//ccH8MPpK.s 			page 13


 390:Src/main.c    **** {
 391:Src/main.c    ****   RCC_OscInitTypeDef RCC_OscInitStruct = {0};
 392:Src/main.c    ****   RCC_ClkInitTypeDef RCC_ClkInitStruct = {0};
 393:Src/main.c    **** 
 394:Src/main.c    ****   /** Configure the main internal regulator output voltage
 395:Src/main.c    ****   */
 396:Src/main.c    ****   __HAL_RCC_PWR_CLK_ENABLE();
 397:Src/main.c    ****   __HAL_PWR_VOLTAGESCALING_CONFIG(PWR_REGULATOR_VOLTAGE_SCALE1);
 398:Src/main.c    ****   /** Initializes the RCC Oscillators according to the specified parameters
 399:Src/main.c    ****   * in the RCC_OscInitTypeDef structure.
 400:Src/main.c    ****   */
 401:Src/main.c    ****   RCC_OscInitStruct.OscillatorType = RCC_OSCILLATORTYPE_HSI;
 402:Src/main.c    ****   RCC_OscInitStruct.HSIState = RCC_HSI_ON;
 403:Src/main.c    ****   RCC_OscInitStruct.HSICalibrationValue = RCC_HSICALIBRATION_DEFAULT;
 404:Src/main.c    ****   RCC_OscInitStruct.PLL.PLLState = RCC_PLL_ON;
 405:Src/main.c    ****   RCC_OscInitStruct.PLL.PLLSource = RCC_PLLSOURCE_HSI;
 406:Src/main.c    ****   RCC_OscInitStruct.PLL.PLLM = 8;
 407:Src/main.c    ****   RCC_OscInitStruct.PLL.PLLN = 90;
 408:Src/main.c    ****   RCC_OscInitStruct.PLL.PLLP = RCC_PLLP_DIV2;
 409:Src/main.c    ****   RCC_OscInitStruct.PLL.PLLQ = 4;
 410:Src/main.c    **** 
 411:Src/main.c    ****   if (HAL_RCC_OscConfig(&RCC_OscInitStruct) != HAL_OK)
 412:Src/main.c    ****   {
 413:Src/main.c    ****     Error_Handler();
 414:Src/main.c    ****   }
 415:Src/main.c    ****   /** Initializes the CPU, AHB and APB buses clocks
 416:Src/main.c    ****   */
 417:Src/main.c    ****   RCC_ClkInitStruct.ClockType = RCC_CLOCKTYPE_HCLK|RCC_CLOCKTYPE_SYSCLK
 418:Src/main.c    ****                               |RCC_CLOCKTYPE_PCLK1|RCC_CLOCKTYPE_PCLK2;
 419:Src/main.c    ****   RCC_ClkInitStruct.SYSCLKSource = RCC_SYSCLKSOURCE_PLLCLK;
 420:Src/main.c    ****   RCC_ClkInitStruct.AHBCLKDivider = RCC_SYSCLK_DIV1;
 421:Src/main.c    ****   RCC_ClkInitStruct.APB1CLKDivider = RCC_HCLK_DIV2;
 422:Src/main.c    ****   RCC_ClkInitStruct.APB2CLKDivider = RCC_HCLK_DIV1;
 423:Src/main.c    **** 
 424:Src/main.c    ****   if (HAL_RCC_ClockConfig(&RCC_ClkInitStruct, FLASH_LATENCY_2) != HAL_OK)
 425:Src/main.c    ****   {
 426:Src/main.c    ****     Error_Handler();
 427:Src/main.c    ****   }
 428:Src/main.c    **** }
 429:Src/main.c    **** 
 430:Src/main.c    **** /**
 431:Src/main.c    ****   * @brief I2C1 Initialization Function
 432:Src/main.c    ****   * @param None
 433:Src/main.c    ****   * @retval None
 434:Src/main.c    ****   */
 435:Src/main.c    **** static void MX_I2C1_Init(void)
 436:Src/main.c    **** {
 437:Src/main.c    **** 
 438:Src/main.c    ****   /* USER CODE BEGIN I2C1_Init 0 */
 439:Src/main.c    **** 
 440:Src/main.c    ****   /* USER CODE END I2C1_Init 0 */
 441:Src/main.c    **** 
 442:Src/main.c    ****   /* USER CODE BEGIN I2C1_Init 1 */
 443:Src/main.c    **** 
 444:Src/main.c    ****   /* USER CODE END I2C1_Init 1 */
 445:Src/main.c    ****   hi2c1.Instance = I2C1;
 446:Src/main.c    ****   hi2c1.Init.ClockSpeed = 100000;
ARM GAS  /var/folders/h5/t6jc6jh127n_294bflj9bdw40000gn/T//ccH8MPpK.s 			page 14


 447:Src/main.c    ****   hi2c1.Init.DutyCycle = I2C_DUTYCYCLE_2;
 448:Src/main.c    ****   hi2c1.Init.OwnAddress1 = 0;
 449:Src/main.c    ****   hi2c1.Init.AddressingMode = I2C_ADDRESSINGMODE_7BIT;
 450:Src/main.c    ****   hi2c1.Init.DualAddressMode = I2C_DUALADDRESS_DISABLE;
 451:Src/main.c    ****   hi2c1.Init.OwnAddress2 = 0;
 452:Src/main.c    ****   hi2c1.Init.GeneralCallMode = I2C_GENERALCALL_DISABLE;
 453:Src/main.c    ****   hi2c1.Init.NoStretchMode = I2C_NOSTRETCH_DISABLE;
 454:Src/main.c    ****   if (HAL_I2C_Init(&hi2c1) != HAL_OK)
 455:Src/main.c    ****   {
 456:Src/main.c    ****     Error_Handler();
 457:Src/main.c    ****   }
 458:Src/main.c    ****   /* USER CODE BEGIN I2C1_Init 2 */
 459:Src/main.c    **** 
 460:Src/main.c    ****   /* USER CODE END I2C1_Init 2 */
 461:Src/main.c    **** 
 462:Src/main.c    **** }
 463:Src/main.c    **** 
 464:Src/main.c    **** /**
 465:Src/main.c    ****   * @brief SPI1 Initialization Function
 466:Src/main.c    ****   * @param None
 467:Src/main.c    ****   * @retval None
 468:Src/main.c    ****   */
 469:Src/main.c    **** static void MX_SPI1_Init(void)
 470:Src/main.c    **** {
 471:Src/main.c    **** 
 472:Src/main.c    ****   /* USER CODE BEGIN SPI1_Init 0 */
 473:Src/main.c    **** 
 474:Src/main.c    ****   /* USER CODE END SPI1_Init 0 */
 475:Src/main.c    **** 
 476:Src/main.c    ****   /* USER CODE BEGIN SPI1_Init 1 */
 477:Src/main.c    **** 
 478:Src/main.c    ****   /* USER CODE END SPI1_Init 1 */
 479:Src/main.c    ****   /* SPI1 parameter configuration*/
 480:Src/main.c    ****   hspi1.Instance = SPI1;
 481:Src/main.c    ****   hspi1.Init.Mode = SPI_MODE_MASTER;
 482:Src/main.c    ****   hspi1.Init.Direction = SPI_DIRECTION_2LINES;
 483:Src/main.c    ****   hspi1.Init.DataSize = SPI_DATASIZE_8BIT;
 484:Src/main.c    ****   hspi1.Init.CLKPolarity = SPI_POLARITY_HIGH;
 485:Src/main.c    ****   hspi1.Init.CLKPhase = SPI_PHASE_2EDGE;
 486:Src/main.c    ****   hspi1.Init.NSS = SPI_NSS_SOFT;
 487:Src/main.c    ****   hspi1.Init.BaudRatePrescaler = SPI_BAUDRATEPRESCALER_64;
 488:Src/main.c    ****   hspi1.Init.FirstBit = SPI_FIRSTBIT_MSB;
 489:Src/main.c    ****   hspi1.Init.TIMode = SPI_TIMODE_DISABLE;
 490:Src/main.c    ****   hspi1.Init.CRCCalculation = SPI_CRCCALCULATION_DISABLE;
 491:Src/main.c    ****   hspi1.Init.CRCPolynomial = 10;
 492:Src/main.c    ****   if (HAL_SPI_Init(&hspi1) != HAL_OK)
 493:Src/main.c    ****   {
 494:Src/main.c    ****     Error_Handler();
 495:Src/main.c    ****   }
 496:Src/main.c    ****   /* USER CODE BEGIN SPI1_Init 2 */
 497:Src/main.c    **** 
 498:Src/main.c    ****   /* USER CODE END SPI1_Init 2 */
 499:Src/main.c    **** 
 500:Src/main.c    **** }
 501:Src/main.c    **** 
 502:Src/main.c    **** /**
 503:Src/main.c    ****   * @brief USART2 Initialization Function
ARM GAS  /var/folders/h5/t6jc6jh127n_294bflj9bdw40000gn/T//ccH8MPpK.s 			page 15


 504:Src/main.c    ****   * @param None
 505:Src/main.c    ****   * @retval None
 506:Src/main.c    ****   */
 507:Src/main.c    **** static void MX_USART2_UART_Init(void)
 508:Src/main.c    **** {
 509:Src/main.c    **** 
 510:Src/main.c    ****   /* USER CODE BEGIN USART2_Init 0 */
 511:Src/main.c    **** 
 512:Src/main.c    ****   /* USER CODE END USART2_Init 0 */
 513:Src/main.c    **** 
 514:Src/main.c    ****   /* USER CODE BEGIN USART2_Init 1 */
 515:Src/main.c    **** 
 516:Src/main.c    ****   /* USER CODE END USART2_Init 1 */
 517:Src/main.c    ****   huart2.Instance = USART2;
 518:Src/main.c    ****   huart2.Init.BaudRate = 115200;
 519:Src/main.c    ****   huart2.Init.WordLength = UART_WORDLENGTH_8B;
 520:Src/main.c    ****   huart2.Init.StopBits = UART_STOPBITS_1;
 521:Src/main.c    ****   huart2.Init.Parity = UART_PARITY_NONE;
 522:Src/main.c    ****   huart2.Init.Mode = UART_MODE_TX_RX;
 523:Src/main.c    ****   huart2.Init.HwFlowCtl = UART_HWCONTROL_NONE;
 524:Src/main.c    ****   huart2.Init.OverSampling = UART_OVERSAMPLING_16;
 525:Src/main.c    ****   if (HAL_UART_Init(&huart2) != HAL_OK)
 526:Src/main.c    ****   {
 527:Src/main.c    ****     Error_Handler();
 528:Src/main.c    ****   }
 529:Src/main.c    ****   /* USER CODE BEGIN USART2_Init 2 */
 530:Src/main.c    **** 
 531:Src/main.c    ****   /* USER CODE END USART2_Init 2 */
 532:Src/main.c    **** 
 533:Src/main.c    **** }
 534:Src/main.c    **** 
 535:Src/main.c    **** /**
 536:Src/main.c    ****   * @brief GPIO Initialization Function
 537:Src/main.c    ****   * @param None
 538:Src/main.c    ****   * @retval None
 539:Src/main.c    ****   */
 540:Src/main.c    **** static void MX_GPIO_Init(void)
 541:Src/main.c    **** {
 171              		.loc 2 541 1 is_stmt 1 view -0
 172              		.cfi_startproc
 173              		@ args = 0, pretend = 0, frame = 32
 174              		@ frame_needed = 0, uses_anonymous_args = 0
 175 0000 70B5     		push	{r4, r5, r6, lr}
 176              	.LCFI6:
 177              		.cfi_def_cfa_offset 16
 178              		.cfi_offset 4, -16
 179              		.cfi_offset 5, -12
 180              		.cfi_offset 6, -8
 181              		.cfi_offset 14, -4
 182 0002 88B0     		sub	sp, sp, #32
 183              	.LCFI7:
 184              		.cfi_def_cfa_offset 48
 542:Src/main.c    ****   GPIO_InitTypeDef GPIO_InitStruct = {0};
 185              		.loc 2 542 3 view .LVU27
 186              		.loc 2 542 20 is_stmt 0 view .LVU28
 187 0004 0024     		movs	r4, #0
 188 0006 0394     		str	r4, [sp, #12]
ARM GAS  /var/folders/h5/t6jc6jh127n_294bflj9bdw40000gn/T//ccH8MPpK.s 			page 16


 189 0008 0494     		str	r4, [sp, #16]
 190 000a 0594     		str	r4, [sp, #20]
 191 000c 0694     		str	r4, [sp, #24]
 192 000e 0794     		str	r4, [sp, #28]
 543:Src/main.c    **** 
 544:Src/main.c    ****   /* GPIO Ports Clock Enable */
 545:Src/main.c    ****   __HAL_RCC_GPIOH_CLK_ENABLE();
 193              		.loc 2 545 3 is_stmt 1 view .LVU29
 194              	.LBB4:
 195              		.loc 2 545 3 view .LVU30
 196 0010 0094     		str	r4, [sp]
 197              		.loc 2 545 3 view .LVU31
 198 0012 1C4B     		ldr	r3, .L11
 199 0014 1A6B     		ldr	r2, [r3, #48]
 200 0016 42F08002 		orr	r2, r2, #128
 201 001a 1A63     		str	r2, [r3, #48]
 202              		.loc 2 545 3 view .LVU32
 203 001c 1A6B     		ldr	r2, [r3, #48]
 204 001e 02F08002 		and	r2, r2, #128
 205 0022 0092     		str	r2, [sp]
 206              		.loc 2 545 3 view .LVU33
 207 0024 009A     		ldr	r2, [sp]
 208              	.LBE4:
 209              		.loc 2 545 3 view .LVU34
 546:Src/main.c    ****   __HAL_RCC_GPIOA_CLK_ENABLE();
 210              		.loc 2 546 3 view .LVU35
 211              	.LBB5:
 212              		.loc 2 546 3 view .LVU36
 213 0026 0194     		str	r4, [sp, #4]
 214              		.loc 2 546 3 view .LVU37
 215 0028 1A6B     		ldr	r2, [r3, #48]
 216 002a 42F00102 		orr	r2, r2, #1
 217 002e 1A63     		str	r2, [r3, #48]
 218              		.loc 2 546 3 view .LVU38
 219 0030 1A6B     		ldr	r2, [r3, #48]
 220 0032 02F00102 		and	r2, r2, #1
 221 0036 0192     		str	r2, [sp, #4]
 222              		.loc 2 546 3 view .LVU39
 223 0038 019A     		ldr	r2, [sp, #4]
 224              	.LBE5:
 225              		.loc 2 546 3 view .LVU40
 547:Src/main.c    ****   __HAL_RCC_GPIOB_CLK_ENABLE();
 226              		.loc 2 547 3 view .LVU41
 227              	.LBB6:
 228              		.loc 2 547 3 view .LVU42
 229 003a 0294     		str	r4, [sp, #8]
 230              		.loc 2 547 3 view .LVU43
 231 003c 1A6B     		ldr	r2, [r3, #48]
 232 003e 42F00202 		orr	r2, r2, #2
 233 0042 1A63     		str	r2, [r3, #48]
 234              		.loc 2 547 3 view .LVU44
 235 0044 1B6B     		ldr	r3, [r3, #48]
 236 0046 03F00203 		and	r3, r3, #2
 237 004a 0293     		str	r3, [sp, #8]
 238              		.loc 2 547 3 view .LVU45
 239 004c 029B     		ldr	r3, [sp, #8]
 240              	.LBE6:
ARM GAS  /var/folders/h5/t6jc6jh127n_294bflj9bdw40000gn/T//ccH8MPpK.s 			page 17


 241              		.loc 2 547 3 view .LVU46
 548:Src/main.c    **** 
 549:Src/main.c    ****   /*Configure GPIO pin Output Level */
 550:Src/main.c    ****   HAL_GPIO_WritePin(GPIOB, GPIO_PIN_6, GPIO_PIN_RESET);
 242              		.loc 2 550 3 view .LVU47
 243 004e 0E4D     		ldr	r5, .L11+4
 244 0050 2246     		mov	r2, r4
 245 0052 4021     		movs	r1, #64
 246 0054 2846     		mov	r0, r5
 247 0056 FFF7FEFF 		bl	HAL_GPIO_WritePin
 248              	.LVL12:
 551:Src/main.c    **** 
 552:Src/main.c    ****   /*Configure GPIO pin : PB6 */
 553:Src/main.c    ****   GPIO_InitStruct.Pin = GPIO_PIN_6;
 249              		.loc 2 553 3 view .LVU48
 250              		.loc 2 553 23 is_stmt 0 view .LVU49
 251 005a 4023     		movs	r3, #64
 252 005c 0393     		str	r3, [sp, #12]
 554:Src/main.c    ****   GPIO_InitStruct.Mode = GPIO_MODE_OUTPUT_PP;
 253              		.loc 2 554 3 is_stmt 1 view .LVU50
 254              		.loc 2 554 24 is_stmt 0 view .LVU51
 255 005e 0126     		movs	r6, #1
 256 0060 0496     		str	r6, [sp, #16]
 555:Src/main.c    ****   GPIO_InitStruct.Pull = GPIO_NOPULL;
 257              		.loc 2 555 3 is_stmt 1 view .LVU52
 258              		.loc 2 555 24 is_stmt 0 view .LVU53
 259 0062 0594     		str	r4, [sp, #20]
 556:Src/main.c    ****   GPIO_InitStruct.Speed = GPIO_SPEED_FREQ_LOW;
 260              		.loc 2 556 3 is_stmt 1 view .LVU54
 261              		.loc 2 556 25 is_stmt 0 view .LVU55
 262 0064 0694     		str	r4, [sp, #24]
 557:Src/main.c    ****   HAL_GPIO_Init(GPIOB, &GPIO_InitStruct);
 263              		.loc 2 557 3 is_stmt 1 view .LVU56
 264 0066 03A9     		add	r1, sp, #12
 265 0068 2846     		mov	r0, r5
 266 006a FFF7FEFF 		bl	HAL_GPIO_Init
 267              	.LVL13:
 558:Src/main.c    **** 
 559:Src/main.c    ****   GPIO_InitStruct.Pin = GPIO_PIN_5;
 268              		.loc 2 559 3 view .LVU57
 269              		.loc 2 559 23 is_stmt 0 view .LVU58
 270 006e 2023     		movs	r3, #32
 271 0070 0393     		str	r3, [sp, #12]
 560:Src/main.c    ****   GPIO_InitStruct.Mode = GPIO_MODE_OUTPUT_PP;
 272              		.loc 2 560 3 is_stmt 1 view .LVU59
 273              		.loc 2 560 24 is_stmt 0 view .LVU60
 274 0072 0496     		str	r6, [sp, #16]
 561:Src/main.c    ****   GPIO_InitStruct.Pull = GPIO_NOPULL;
 275              		.loc 2 561 3 is_stmt 1 view .LVU61
 276              		.loc 2 561 24 is_stmt 0 view .LVU62
 277 0074 0594     		str	r4, [sp, #20]
 562:Src/main.c    ****   GPIO_InitStruct.Speed = GPIO_SPEED_FREQ_LOW;
 278              		.loc 2 562 3 is_stmt 1 view .LVU63
 279              		.loc 2 562 25 is_stmt 0 view .LVU64
 280 0076 0694     		str	r4, [sp, #24]
 563:Src/main.c    ****   HAL_GPIO_Init(GPIOB, &GPIO_InitStruct);
 281              		.loc 2 563 3 is_stmt 1 view .LVU65
ARM GAS  /var/folders/h5/t6jc6jh127n_294bflj9bdw40000gn/T//ccH8MPpK.s 			page 18


 282 0078 03A9     		add	r1, sp, #12
 283 007a 2846     		mov	r0, r5
 284 007c FFF7FEFF 		bl	HAL_GPIO_Init
 285              	.LVL14:
 564:Src/main.c    **** 
 565:Src/main.c    **** }
 286              		.loc 2 565 1 is_stmt 0 view .LVU66
 287 0080 08B0     		add	sp, sp, #32
 288              	.LCFI8:
 289              		.cfi_def_cfa_offset 16
 290              		@ sp needed
 291 0082 70BD     		pop	{r4, r5, r6, pc}
 292              	.L12:
 293              		.align	2
 294              	.L11:
 295 0084 00380240 		.word	1073887232
 296 0088 00040240 		.word	1073873920
 297              		.cfi_endproc
 298              	.LFE164:
 300              		.section	.text.lcd16x2_i2c_init,"ax",%progbits
 301              		.align	1
 302              		.global	lcd16x2_i2c_init
 303              		.syntax unified
 304              		.thumb
 305              		.thumb_func
 306              		.fpu fpv4-sp-d16
 308              	lcd16x2_i2c_init:
 309              	.LVL15:
 310              	.LFB135:
 131:Inc/lcd16x2_i2c.h **** 
 132:Inc/lcd16x2_i2c.h **** 
 133:Inc/lcd16x2_i2c.h **** /**
 134:Inc/lcd16x2_i2c.h ****  * @brief Initialise LCD16x2
 135:Inc/lcd16x2_i2c.h ****  * @param[in] *pI2cHandle - pointer to HAL I2C handle
 136:Inc/lcd16x2_i2c.h ****  */
 137:Inc/lcd16x2_i2c.h **** bool lcd16x2_i2c_init(I2C_HandleTypeDef *pI2cHandle)
 138:Inc/lcd16x2_i2c.h **** {
 311              		.loc 1 138 1 is_stmt 1 view -0
 312              		.cfi_startproc
 313              		@ args = 0, pretend = 0, frame = 0
 314              		@ frame_needed = 0, uses_anonymous_args = 0
 315              		.loc 1 138 1 is_stmt 0 view .LVU68
 316 0000 10B5     		push	{r4, lr}
 317              	.LCFI9:
 318              		.cfi_def_cfa_offset 8
 319              		.cfi_offset 4, -8
 320              		.cfi_offset 14, -4
 321 0002 0446     		mov	r4, r0
 139:Inc/lcd16x2_i2c.h ****   HAL_Delay(50);
 322              		.loc 1 139 3 is_stmt 1 view .LVU69
 323 0004 3220     		movs	r0, #50
 324              	.LVL16:
 325              		.loc 1 139 3 is_stmt 0 view .LVU70
 326 0006 FFF7FEFF 		bl	HAL_Delay
 327              	.LVL17:
 140:Inc/lcd16x2_i2c.h ****   lcd16x2_i2cHandle = pI2cHandle;
 328              		.loc 1 140 3 is_stmt 1 view .LVU71
ARM GAS  /var/folders/h5/t6jc6jh127n_294bflj9bdw40000gn/T//ccH8MPpK.s 			page 19


 329              		.loc 1 140 21 is_stmt 0 view .LVU72
 330 000a 2B4B     		ldr	r3, .L20
 331 000c 1C60     		str	r4, [r3]
 141:Inc/lcd16x2_i2c.h ****   if(HAL_I2C_IsDeviceReady(lcd16x2_i2cHandle, LCD_I2C_SLAVE_ADDRESS_0, 5, 500) != HAL_OK)
 332              		.loc 1 141 3 is_stmt 1 view .LVU73
 333              		.loc 1 141 6 is_stmt 0 view .LVU74
 334 000e 4FF4FA73 		mov	r3, #500
 335 0012 0522     		movs	r2, #5
 336 0014 4E21     		movs	r1, #78
 337 0016 2046     		mov	r0, r4
 338 0018 FFF7FEFF 		bl	HAL_I2C_IsDeviceReady
 339              	.LVL18:
 340              		.loc 1 141 5 view .LVU75
 341 001c E8BB     		cbnz	r0, .L19
 142:Inc/lcd16x2_i2c.h ****   {
 143:Inc/lcd16x2_i2c.h ****     if(HAL_I2C_IsDeviceReady(lcd16x2_i2cHandle, LCD_I2C_SLAVE_ADDRESS_1, 5, 500) != HAL_OK)
 144:Inc/lcd16x2_i2c.h ****     {
 145:Inc/lcd16x2_i2c.h ****       return false;
 146:Inc/lcd16x2_i2c.h ****     }
 147:Inc/lcd16x2_i2c.h ****     else
 148:Inc/lcd16x2_i2c.h ****     {
 149:Inc/lcd16x2_i2c.h ****       LCD_I2C_SLAVE_ADDRESS = LCD_I2C_SLAVE_ADDRESS_1;
 150:Inc/lcd16x2_i2c.h ****     }
 151:Inc/lcd16x2_i2c.h ****   }
 152:Inc/lcd16x2_i2c.h ****   else
 153:Inc/lcd16x2_i2c.h ****   {
 154:Inc/lcd16x2_i2c.h ****     LCD_I2C_SLAVE_ADDRESS = LCD_I2C_SLAVE_ADDRESS_0;
 342              		.loc 1 154 5 is_stmt 1 view .LVU76
 343              		.loc 1 154 27 is_stmt 0 view .LVU77
 344 001e 274B     		ldr	r3, .L20+4
 345 0020 4E22     		movs	r2, #78
 346 0022 1A70     		strb	r2, [r3]
 347              	.L16:
 155:Inc/lcd16x2_i2c.h ****   }
 156:Inc/lcd16x2_i2c.h ****   //Initialise LCD for 4-bit operation
 157:Inc/lcd16x2_i2c.h ****   //1. Wait at least 15ms
 158:Inc/lcd16x2_i2c.h ****   HAL_Delay(45);
 348              		.loc 1 158 3 is_stmt 1 view .LVU78
 349 0024 2D20     		movs	r0, #45
 350 0026 FFF7FEFF 		bl	HAL_Delay
 351              	.LVL19:
 159:Inc/lcd16x2_i2c.h ****   //2. Attentions sequence
 160:Inc/lcd16x2_i2c.h ****   lcd16x2_i2c_sendCommand(0x30);
 352              		.loc 1 160 3 view .LVU79
 353 002a 3020     		movs	r0, #48
 354 002c FFF7FEFF 		bl	lcd16x2_i2c_sendCommand
 355              	.LVL20:
 161:Inc/lcd16x2_i2c.h ****   HAL_Delay(5);
 356              		.loc 1 161 3 view .LVU80
 357 0030 0520     		movs	r0, #5
 358 0032 FFF7FEFF 		bl	HAL_Delay
 359              	.LVL21:
 162:Inc/lcd16x2_i2c.h ****   lcd16x2_i2c_sendCommand(0x30);
 360              		.loc 1 162 3 view .LVU81
 361 0036 3020     		movs	r0, #48
 362 0038 FFF7FEFF 		bl	lcd16x2_i2c_sendCommand
 363              	.LVL22:
ARM GAS  /var/folders/h5/t6jc6jh127n_294bflj9bdw40000gn/T//ccH8MPpK.s 			page 20


 163:Inc/lcd16x2_i2c.h ****   HAL_Delay(1);
 364              		.loc 1 163 3 view .LVU82
 365 003c 0120     		movs	r0, #1
 366 003e FFF7FEFF 		bl	HAL_Delay
 367              	.LVL23:
 164:Inc/lcd16x2_i2c.h ****   lcd16x2_i2c_sendCommand(0x30);
 368              		.loc 1 164 3 view .LVU83
 369 0042 3020     		movs	r0, #48
 370 0044 FFF7FEFF 		bl	lcd16x2_i2c_sendCommand
 371              	.LVL24:
 165:Inc/lcd16x2_i2c.h ****   HAL_Delay(8);
 372              		.loc 1 165 3 view .LVU84
 373 0048 0820     		movs	r0, #8
 374 004a FFF7FEFF 		bl	HAL_Delay
 375              	.LVL25:
 166:Inc/lcd16x2_i2c.h ****   lcd16x2_i2c_sendCommand(0x20);
 376              		.loc 1 166 3 view .LVU85
 377 004e 2020     		movs	r0, #32
 378 0050 FFF7FEFF 		bl	lcd16x2_i2c_sendCommand
 379              	.LVL26:
 167:Inc/lcd16x2_i2c.h ****   HAL_Delay(8);
 380              		.loc 1 167 3 view .LVU86
 381 0054 0820     		movs	r0, #8
 382 0056 FFF7FEFF 		bl	HAL_Delay
 383              	.LVL27:
 168:Inc/lcd16x2_i2c.h **** 
 169:Inc/lcd16x2_i2c.h ****   lcd16x2_i2c_sendCommand(LCD_FUNCTIONSET | LCD_FUNCTION_N);
 384              		.loc 1 169 3 view .LVU87
 385 005a 2820     		movs	r0, #40
 386 005c FFF7FEFF 		bl	lcd16x2_i2c_sendCommand
 387              	.LVL28:
 170:Inc/lcd16x2_i2c.h ****   HAL_Delay(1);
 388              		.loc 1 170 3 view .LVU88
 389 0060 0120     		movs	r0, #1
 390 0062 FFF7FEFF 		bl	HAL_Delay
 391              	.LVL29:
 171:Inc/lcd16x2_i2c.h ****   lcd16x2_i2c_sendCommand(LCD_DISPLAYCONTROL);
 392              		.loc 1 171 3 view .LVU89
 393 0066 0820     		movs	r0, #8
 394 0068 FFF7FEFF 		bl	lcd16x2_i2c_sendCommand
 395              	.LVL30:
 172:Inc/lcd16x2_i2c.h ****   HAL_Delay(1);
 396              		.loc 1 172 3 view .LVU90
 397 006c 0120     		movs	r0, #1
 398 006e FFF7FEFF 		bl	HAL_Delay
 399              	.LVL31:
 173:Inc/lcd16x2_i2c.h ****   lcd16x2_i2c_sendCommand(LCD_CLEARDISPLAY);
 400              		.loc 1 173 3 view .LVU91
 401 0072 0120     		movs	r0, #1
 402 0074 FFF7FEFF 		bl	lcd16x2_i2c_sendCommand
 403              	.LVL32:
 174:Inc/lcd16x2_i2c.h ****   HAL_Delay(3);
 404              		.loc 1 174 3 view .LVU92
 405 0078 0320     		movs	r0, #3
 406 007a FFF7FEFF 		bl	HAL_Delay
 407              	.LVL33:
 175:Inc/lcd16x2_i2c.h ****   lcd16x2_i2c_sendCommand(0x04 | LCD_ENTRY_ID);
ARM GAS  /var/folders/h5/t6jc6jh127n_294bflj9bdw40000gn/T//ccH8MPpK.s 			page 21


 408              		.loc 1 175 3 view .LVU93
 409 007e 0620     		movs	r0, #6
 410 0080 FFF7FEFF 		bl	lcd16x2_i2c_sendCommand
 411              	.LVL34:
 176:Inc/lcd16x2_i2c.h ****   HAL_Delay(1);
 412              		.loc 1 176 3 view .LVU94
 413 0084 0120     		movs	r0, #1
 414 0086 FFF7FEFF 		bl	HAL_Delay
 415              	.LVL35:
 177:Inc/lcd16x2_i2c.h ****   lcd16x2_i2c_sendCommand(LCD_DISPLAYCONTROL | LCD_DISPLAY_D);
 416              		.loc 1 177 3 view .LVU95
 417 008a 0C20     		movs	r0, #12
 418 008c FFF7FEFF 		bl	lcd16x2_i2c_sendCommand
 419              	.LVL36:
 178:Inc/lcd16x2_i2c.h ****   HAL_Delay(3);
 420              		.loc 1 178 3 view .LVU96
 421 0090 0320     		movs	r0, #3
 422 0092 FFF7FEFF 		bl	HAL_Delay
 423              	.LVL37:
 179:Inc/lcd16x2_i2c.h **** 
 180:Inc/lcd16x2_i2c.h ****   return true;
 424              		.loc 1 180 3 view .LVU97
 425              		.loc 1 180 10 is_stmt 0 view .LVU98
 426 0096 0120     		movs	r0, #1
 427              	.L15:
 181:Inc/lcd16x2_i2c.h **** }
 428              		.loc 1 181 1 view .LVU99
 429 0098 10BD     		pop	{r4, pc}
 430              	.LVL38:
 431              	.L19:
 143:Inc/lcd16x2_i2c.h ****     {
 432              		.loc 1 143 5 is_stmt 1 view .LVU100
 143:Inc/lcd16x2_i2c.h ****     {
 433              		.loc 1 143 8 is_stmt 0 view .LVU101
 434 009a 4FF4FA73 		mov	r3, #500
 435 009e 0522     		movs	r2, #5
 436 00a0 7E21     		movs	r1, #126
 437 00a2 0548     		ldr	r0, .L20
 438 00a4 0068     		ldr	r0, [r0]
 439 00a6 FFF7FEFF 		bl	HAL_I2C_IsDeviceReady
 440              	.LVL39:
 143:Inc/lcd16x2_i2c.h ****     {
 441              		.loc 1 143 7 view .LVU102
 442 00aa 18B9     		cbnz	r0, .L17
 149:Inc/lcd16x2_i2c.h ****     }
 443              		.loc 1 149 7 is_stmt 1 view .LVU103
 149:Inc/lcd16x2_i2c.h ****     }
 444              		.loc 1 149 29 is_stmt 0 view .LVU104
 445 00ac 034B     		ldr	r3, .L20+4
 446 00ae 7E22     		movs	r2, #126
 447 00b0 1A70     		strb	r2, [r3]
 448 00b2 B7E7     		b	.L16
 449              	.L17:
 145:Inc/lcd16x2_i2c.h ****     }
 450              		.loc 1 145 14 view .LVU105
 451 00b4 0020     		movs	r0, #0
 452 00b6 EFE7     		b	.L15
ARM GAS  /var/folders/h5/t6jc6jh127n_294bflj9bdw40000gn/T//ccH8MPpK.s 			page 22


 453              	.L21:
 454              		.align	2
 455              	.L20:
 456 00b8 00000000 		.word	.LANCHOR1
 457 00bc 00000000 		.word	.LANCHOR0
 458              		.cfi_endproc
 459              	.LFE135:
 461              		.section	.text.lcd16x2_i2c_setCursor,"ax",%progbits
 462              		.align	1
 463              		.global	lcd16x2_i2c_setCursor
 464              		.syntax unified
 465              		.thumb
 466              		.thumb_func
 467              		.fpu fpv4-sp-d16
 469              	lcd16x2_i2c_setCursor:
 470              	.LVL40:
 471              	.LFB136:
 182:Inc/lcd16x2_i2c.h **** 
 183:Inc/lcd16x2_i2c.h **** /**
 184:Inc/lcd16x2_i2c.h ****  * @brief Set cursor position
 185:Inc/lcd16x2_i2c.h ****  * @param[in] row - 0 or 1 for line1 or line2
 186:Inc/lcd16x2_i2c.h ****  * @param[in] col - 0 - 15 (16 columns LCD)
 187:Inc/lcd16x2_i2c.h ****  */
 188:Inc/lcd16x2_i2c.h **** void lcd16x2_i2c_setCursor(uint8_t row, uint8_t col)
 189:Inc/lcd16x2_i2c.h **** {
 472              		.loc 1 189 1 is_stmt 1 view -0
 473              		.cfi_startproc
 474              		@ args = 0, pretend = 0, frame = 0
 475              		@ frame_needed = 0, uses_anonymous_args = 0
 476              		.loc 1 189 1 is_stmt 0 view .LVU107
 477 0000 08B5     		push	{r3, lr}
 478              	.LCFI10:
 479              		.cfi_def_cfa_offset 8
 480              		.cfi_offset 3, -8
 481              		.cfi_offset 14, -4
 190:Inc/lcd16x2_i2c.h ****   uint8_t maskData;
 482              		.loc 1 190 3 is_stmt 1 view .LVU108
 191:Inc/lcd16x2_i2c.h ****   maskData = (col)&0x0F;
 483              		.loc 1 191 3 view .LVU109
 484              		.loc 1 191 12 is_stmt 0 view .LVU110
 485 0002 01F00F01 		and	r1, r1, #15
 486              	.LVL41:
 192:Inc/lcd16x2_i2c.h ****   if(row==0)
 487              		.loc 1 192 3 is_stmt 1 view .LVU111
 488              		.loc 1 192 5 is_stmt 0 view .LVU112
 489 0006 20B9     		cbnz	r0, .L23
 193:Inc/lcd16x2_i2c.h ****   {
 194:Inc/lcd16x2_i2c.h ****     maskData |= (0x80);
 490              		.loc 1 194 5 is_stmt 1 view .LVU113
 491              	.LVL42:
 195:Inc/lcd16x2_i2c.h ****     lcd16x2_i2c_sendCommand(maskData);
 492              		.loc 1 195 5 view .LVU114
 493 0008 41F08000 		orr	r0, r1, #128
 494              	.LVL43:
 495              		.loc 1 195 5 is_stmt 0 view .LVU115
 496 000c FFF7FEFF 		bl	lcd16x2_i2c_sendCommand
 497              	.LVL44:
ARM GAS  /var/folders/h5/t6jc6jh127n_294bflj9bdw40000gn/T//ccH8MPpK.s 			page 23


 498              	.L22:
 196:Inc/lcd16x2_i2c.h ****   }
 197:Inc/lcd16x2_i2c.h ****   else
 198:Inc/lcd16x2_i2c.h ****   {
 199:Inc/lcd16x2_i2c.h ****     maskData |= (0xc0);
 200:Inc/lcd16x2_i2c.h ****     lcd16x2_i2c_sendCommand(maskData);
 201:Inc/lcd16x2_i2c.h ****   }
 202:Inc/lcd16x2_i2c.h **** }
 499              		.loc 1 202 1 view .LVU116
 500 0010 08BD     		pop	{r3, pc}
 501              	.LVL45:
 502              	.L23:
 199:Inc/lcd16x2_i2c.h ****     lcd16x2_i2c_sendCommand(maskData);
 503              		.loc 1 199 5 is_stmt 1 view .LVU117
 200:Inc/lcd16x2_i2c.h ****   }
 504              		.loc 1 200 5 view .LVU118
 505 0012 41F0C000 		orr	r0, r1, #192
 506              	.LVL46:
 200:Inc/lcd16x2_i2c.h ****   }
 507              		.loc 1 200 5 is_stmt 0 view .LVU119
 508 0016 FFF7FEFF 		bl	lcd16x2_i2c_sendCommand
 509              	.LVL47:
 510              		.loc 1 202 1 view .LVU120
 511 001a F9E7     		b	.L22
 512              		.cfi_endproc
 513              	.LFE136:
 515              		.section	.text.lcd16x2_i2c_1stLine,"ax",%progbits
 516              		.align	1
 517              		.global	lcd16x2_i2c_1stLine
 518              		.syntax unified
 519              		.thumb
 520              		.thumb_func
 521              		.fpu fpv4-sp-d16
 523              	lcd16x2_i2c_1stLine:
 524              	.LFB137:
 203:Inc/lcd16x2_i2c.h **** 
 204:Inc/lcd16x2_i2c.h **** /**
 205:Inc/lcd16x2_i2c.h ****  * @brief Move to beginning of 1st line
 206:Inc/lcd16x2_i2c.h ****  */
 207:Inc/lcd16x2_i2c.h **** void lcd16x2_i2c_1stLine(void)
 208:Inc/lcd16x2_i2c.h **** {
 525              		.loc 1 208 1 is_stmt 1 view -0
 526              		.cfi_startproc
 527              		@ args = 0, pretend = 0, frame = 0
 528              		@ frame_needed = 0, uses_anonymous_args = 0
 529 0000 08B5     		push	{r3, lr}
 530              	.LCFI11:
 531              		.cfi_def_cfa_offset 8
 532              		.cfi_offset 3, -8
 533              		.cfi_offset 14, -4
 209:Inc/lcd16x2_i2c.h ****   lcd16x2_i2c_setCursor(0,0);
 534              		.loc 1 209 3 view .LVU122
 535 0002 0021     		movs	r1, #0
 536 0004 0846     		mov	r0, r1
 537 0006 FFF7FEFF 		bl	lcd16x2_i2c_setCursor
 538              	.LVL48:
 210:Inc/lcd16x2_i2c.h **** }
ARM GAS  /var/folders/h5/t6jc6jh127n_294bflj9bdw40000gn/T//ccH8MPpK.s 			page 24


 539              		.loc 1 210 1 is_stmt 0 view .LVU123
 540 000a 08BD     		pop	{r3, pc}
 541              		.cfi_endproc
 542              	.LFE137:
 544              		.section	.text.lcd16x2_i2c_2ndLine,"ax",%progbits
 545              		.align	1
 546              		.global	lcd16x2_i2c_2ndLine
 547              		.syntax unified
 548              		.thumb
 549              		.thumb_func
 550              		.fpu fpv4-sp-d16
 552              	lcd16x2_i2c_2ndLine:
 553              	.LFB138:
 211:Inc/lcd16x2_i2c.h **** /**
 212:Inc/lcd16x2_i2c.h ****  * @brief Move to beginning of 2nd line
 213:Inc/lcd16x2_i2c.h ****  */
 214:Inc/lcd16x2_i2c.h **** void lcd16x2_i2c_2ndLine(void)
 215:Inc/lcd16x2_i2c.h **** {
 554              		.loc 1 215 1 is_stmt 1 view -0
 555              		.cfi_startproc
 556              		@ args = 0, pretend = 0, frame = 0
 557              		@ frame_needed = 0, uses_anonymous_args = 0
 558 0000 08B5     		push	{r3, lr}
 559              	.LCFI12:
 560              		.cfi_def_cfa_offset 8
 561              		.cfi_offset 3, -8
 562              		.cfi_offset 14, -4
 216:Inc/lcd16x2_i2c.h ****   lcd16x2_i2c_setCursor(1,0);
 563              		.loc 1 216 3 view .LVU125
 564 0002 0021     		movs	r1, #0
 565 0004 0120     		movs	r0, #1
 566 0006 FFF7FEFF 		bl	lcd16x2_i2c_setCursor
 567              	.LVL49:
 217:Inc/lcd16x2_i2c.h **** }
 568              		.loc 1 217 1 is_stmt 0 view .LVU126
 569 000a 08BD     		pop	{r3, pc}
 570              		.cfi_endproc
 571              	.LFE138:
 573              		.section	.text.lcd16x2_i2c_TwoLines,"ax",%progbits
 574              		.align	1
 575              		.global	lcd16x2_i2c_TwoLines
 576              		.syntax unified
 577              		.thumb
 578              		.thumb_func
 579              		.fpu fpv4-sp-d16
 581              	lcd16x2_i2c_TwoLines:
 582              	.LFB139:
 218:Inc/lcd16x2_i2c.h **** 
 219:Inc/lcd16x2_i2c.h **** /**
 220:Inc/lcd16x2_i2c.h ****  * @brief Select LCD Number of lines mode
 221:Inc/lcd16x2_i2c.h ****  */
 222:Inc/lcd16x2_i2c.h **** void lcd16x2_i2c_TwoLines(void)
 223:Inc/lcd16x2_i2c.h **** {
 583              		.loc 1 223 1 is_stmt 1 view -0
 584              		.cfi_startproc
 585              		@ args = 0, pretend = 0, frame = 0
 586              		@ frame_needed = 0, uses_anonymous_args = 0
ARM GAS  /var/folders/h5/t6jc6jh127n_294bflj9bdw40000gn/T//ccH8MPpK.s 			page 25


 587 0000 08B5     		push	{r3, lr}
 588              	.LCFI13:
 589              		.cfi_def_cfa_offset 8
 590              		.cfi_offset 3, -8
 591              		.cfi_offset 14, -4
 224:Inc/lcd16x2_i2c.h ****   lcd16x2_i2c_sendCommand(LCD_FUNCTIONSET | LCD_FUNCTION_N);
 592              		.loc 1 224 3 view .LVU128
 593 0002 2820     		movs	r0, #40
 594 0004 FFF7FEFF 		bl	lcd16x2_i2c_sendCommand
 595              	.LVL50:
 225:Inc/lcd16x2_i2c.h **** }
 596              		.loc 1 225 1 is_stmt 0 view .LVU129
 597 0008 08BD     		pop	{r3, pc}
 598              		.cfi_endproc
 599              	.LFE139:
 601              		.section	.text.lcd16x2_i2c_OneLine,"ax",%progbits
 602              		.align	1
 603              		.global	lcd16x2_i2c_OneLine
 604              		.syntax unified
 605              		.thumb
 606              		.thumb_func
 607              		.fpu fpv4-sp-d16
 609              	lcd16x2_i2c_OneLine:
 610              	.LFB140:
 226:Inc/lcd16x2_i2c.h **** void lcd16x2_i2c_OneLine(void)
 227:Inc/lcd16x2_i2c.h **** {
 611              		.loc 1 227 1 is_stmt 1 view -0
 612              		.cfi_startproc
 613              		@ args = 0, pretend = 0, frame = 0
 614              		@ frame_needed = 0, uses_anonymous_args = 0
 615 0000 08B5     		push	{r3, lr}
 616              	.LCFI14:
 617              		.cfi_def_cfa_offset 8
 618              		.cfi_offset 3, -8
 619              		.cfi_offset 14, -4
 228:Inc/lcd16x2_i2c.h ****   lcd16x2_i2c_sendCommand(LCD_FUNCTIONSET);
 620              		.loc 1 228 3 view .LVU131
 621 0002 2020     		movs	r0, #32
 622 0004 FFF7FEFF 		bl	lcd16x2_i2c_sendCommand
 623              	.LVL51:
 229:Inc/lcd16x2_i2c.h **** }
 624              		.loc 1 229 1 is_stmt 0 view .LVU132
 625 0008 08BD     		pop	{r3, pc}
 626              		.cfi_endproc
 627              	.LFE140:
 629              		.section	.text.lcd16x2_i2c_cursorShow,"ax",%progbits
 630              		.align	1
 631              		.global	lcd16x2_i2c_cursorShow
 632              		.syntax unified
 633              		.thumb
 634              		.thumb_func
 635              		.fpu fpv4-sp-d16
 637              	lcd16x2_i2c_cursorShow:
 638              	.LVL52:
 639              	.LFB141:
 230:Inc/lcd16x2_i2c.h **** 
 231:Inc/lcd16x2_i2c.h **** /**
ARM GAS  /var/folders/h5/t6jc6jh127n_294bflj9bdw40000gn/T//ccH8MPpK.s 			page 26


 232:Inc/lcd16x2_i2c.h ****  * @brief Cursor ON/OFF
 233:Inc/lcd16x2_i2c.h ****  */
 234:Inc/lcd16x2_i2c.h **** void lcd16x2_i2c_cursorShow(bool state)
 235:Inc/lcd16x2_i2c.h **** {
 640              		.loc 1 235 1 is_stmt 1 view -0
 641              		.cfi_startproc
 642              		@ args = 0, pretend = 0, frame = 0
 643              		@ frame_needed = 0, uses_anonymous_args = 0
 644              		.loc 1 235 1 is_stmt 0 view .LVU134
 645 0000 08B5     		push	{r3, lr}
 646              	.LCFI15:
 647              		.cfi_def_cfa_offset 8
 648              		.cfi_offset 3, -8
 649              		.cfi_offset 14, -4
 236:Inc/lcd16x2_i2c.h ****   if(state)
 650              		.loc 1 236 3 is_stmt 1 view .LVU135
 651              		.loc 1 236 5 is_stmt 0 view .LVU136
 652 0002 18B1     		cbz	r0, .L35
 237:Inc/lcd16x2_i2c.h ****   {
 238:Inc/lcd16x2_i2c.h ****     lcd16x2_i2c_sendCommand(LCD_DISPLAYCONTROL | LCD_DISPLAY_B | LCD_DISPLAY_C | LCD_DISPLAY_D);
 653              		.loc 1 238 5 is_stmt 1 view .LVU137
 654 0004 0F20     		movs	r0, #15
 655              	.LVL53:
 656              		.loc 1 238 5 is_stmt 0 view .LVU138
 657 0006 FFF7FEFF 		bl	lcd16x2_i2c_sendCommand
 658              	.LVL54:
 659              	.L34:
 239:Inc/lcd16x2_i2c.h ****   }
 240:Inc/lcd16x2_i2c.h ****   else
 241:Inc/lcd16x2_i2c.h ****   {
 242:Inc/lcd16x2_i2c.h ****     lcd16x2_i2c_sendCommand(LCD_DISPLAYCONTROL | LCD_DISPLAY_D);
 243:Inc/lcd16x2_i2c.h ****   }
 244:Inc/lcd16x2_i2c.h **** }
 660              		.loc 1 244 1 view .LVU139
 661 000a 08BD     		pop	{r3, pc}
 662              	.LVL55:
 663              	.L35:
 242:Inc/lcd16x2_i2c.h ****   }
 664              		.loc 1 242 5 is_stmt 1 view .LVU140
 665 000c 0C20     		movs	r0, #12
 666              	.LVL56:
 242:Inc/lcd16x2_i2c.h ****   }
 667              		.loc 1 242 5 is_stmt 0 view .LVU141
 668 000e FFF7FEFF 		bl	lcd16x2_i2c_sendCommand
 669              	.LVL57:
 670              		.loc 1 244 1 view .LVU142
 671 0012 FAE7     		b	.L34
 672              		.cfi_endproc
 673              	.LFE141:
 675              		.section	.text.lcd16x2_i2c_clear,"ax",%progbits
 676              		.align	1
 677              		.global	lcd16x2_i2c_clear
 678              		.syntax unified
 679              		.thumb
 680              		.thumb_func
 681              		.fpu fpv4-sp-d16
 683              	lcd16x2_i2c_clear:
ARM GAS  /var/folders/h5/t6jc6jh127n_294bflj9bdw40000gn/T//ccH8MPpK.s 			page 27


 684              	.LFB142:
 245:Inc/lcd16x2_i2c.h **** 
 246:Inc/lcd16x2_i2c.h **** /**
 247:Inc/lcd16x2_i2c.h ****  * @brief Display clear
 248:Inc/lcd16x2_i2c.h ****  */
 249:Inc/lcd16x2_i2c.h **** void lcd16x2_i2c_clear(void)
 250:Inc/lcd16x2_i2c.h **** {
 685              		.loc 1 250 1 is_stmt 1 view -0
 686              		.cfi_startproc
 687              		@ args = 0, pretend = 0, frame = 0
 688              		@ frame_needed = 0, uses_anonymous_args = 0
 689 0000 08B5     		push	{r3, lr}
 690              	.LCFI16:
 691              		.cfi_def_cfa_offset 8
 692              		.cfi_offset 3, -8
 693              		.cfi_offset 14, -4
 251:Inc/lcd16x2_i2c.h ****   lcd16x2_i2c_sendCommand(LCD_CLEARDISPLAY);
 694              		.loc 1 251 3 view .LVU144
 695 0002 0120     		movs	r0, #1
 696 0004 FFF7FEFF 		bl	lcd16x2_i2c_sendCommand
 697              	.LVL58:
 252:Inc/lcd16x2_i2c.h ****   HAL_Delay(3);
 698              		.loc 1 252 3 view .LVU145
 699 0008 0320     		movs	r0, #3
 700 000a FFF7FEFF 		bl	HAL_Delay
 701              	.LVL59:
 253:Inc/lcd16x2_i2c.h **** }
 702              		.loc 1 253 1 is_stmt 0 view .LVU146
 703 000e 08BD     		pop	{r3, pc}
 704              		.cfi_endproc
 705              	.LFE142:
 707              		.section	.text.lcd16x2_i2c_display,"ax",%progbits
 708              		.align	1
 709              		.global	lcd16x2_i2c_display
 710              		.syntax unified
 711              		.thumb
 712              		.thumb_func
 713              		.fpu fpv4-sp-d16
 715              	lcd16x2_i2c_display:
 716              	.LVL60:
 717              	.LFB143:
 254:Inc/lcd16x2_i2c.h **** 
 255:Inc/lcd16x2_i2c.h **** /**
 256:Inc/lcd16x2_i2c.h ****  * @brief Display ON/OFF, to hide all characters, but not clear
 257:Inc/lcd16x2_i2c.h ****  */
 258:Inc/lcd16x2_i2c.h **** void lcd16x2_i2c_display(bool state)
 259:Inc/lcd16x2_i2c.h **** {
 718              		.loc 1 259 1 is_stmt 1 view -0
 719              		.cfi_startproc
 720              		@ args = 0, pretend = 0, frame = 0
 721              		@ frame_needed = 0, uses_anonymous_args = 0
 722              		.loc 1 259 1 is_stmt 0 view .LVU148
 723 0000 08B5     		push	{r3, lr}
 724              	.LCFI17:
 725              		.cfi_def_cfa_offset 8
 726              		.cfi_offset 3, -8
 727              		.cfi_offset 14, -4
ARM GAS  /var/folders/h5/t6jc6jh127n_294bflj9bdw40000gn/T//ccH8MPpK.s 			page 28


 260:Inc/lcd16x2_i2c.h ****   if(state)
 728              		.loc 1 260 3 is_stmt 1 view .LVU149
 729              		.loc 1 260 5 is_stmt 0 view .LVU150
 730 0002 18B1     		cbz	r0, .L41
 261:Inc/lcd16x2_i2c.h ****   {
 262:Inc/lcd16x2_i2c.h ****     lcd16x2_i2c_sendCommand(LCD_DISPLAYCONTROL | LCD_DISPLAY_B | LCD_DISPLAY_C | LCD_DISPLAY_D);
 731              		.loc 1 262 5 is_stmt 1 view .LVU151
 732 0004 0F20     		movs	r0, #15
 733              	.LVL61:
 734              		.loc 1 262 5 is_stmt 0 view .LVU152
 735 0006 FFF7FEFF 		bl	lcd16x2_i2c_sendCommand
 736              	.LVL62:
 737              	.L40:
 263:Inc/lcd16x2_i2c.h ****   }
 264:Inc/lcd16x2_i2c.h ****   else
 265:Inc/lcd16x2_i2c.h ****   {
 266:Inc/lcd16x2_i2c.h ****     lcd16x2_i2c_sendCommand(LCD_DISPLAYCONTROL | LCD_DISPLAY_B | LCD_DISPLAY_C);
 267:Inc/lcd16x2_i2c.h ****   }
 268:Inc/lcd16x2_i2c.h **** }
 738              		.loc 1 268 1 view .LVU153
 739 000a 08BD     		pop	{r3, pc}
 740              	.LVL63:
 741              	.L41:
 266:Inc/lcd16x2_i2c.h ****   }
 742              		.loc 1 266 5 is_stmt 1 view .LVU154
 743 000c 0B20     		movs	r0, #11
 744              	.LVL64:
 266:Inc/lcd16x2_i2c.h ****   }
 745              		.loc 1 266 5 is_stmt 0 view .LVU155
 746 000e FFF7FEFF 		bl	lcd16x2_i2c_sendCommand
 747              	.LVL65:
 748              		.loc 1 268 1 view .LVU156
 749 0012 FAE7     		b	.L40
 750              		.cfi_endproc
 751              	.LFE143:
 753              		.section	.text.lcd16x2_i2c_shiftRight,"ax",%progbits
 754              		.align	1
 755              		.global	lcd16x2_i2c_shiftRight
 756              		.syntax unified
 757              		.thumb
 758              		.thumb_func
 759              		.fpu fpv4-sp-d16
 761              	lcd16x2_i2c_shiftRight:
 762              	.LVL66:
 763              	.LFB144:
 269:Inc/lcd16x2_i2c.h **** 
 270:Inc/lcd16x2_i2c.h **** /**
 271:Inc/lcd16x2_i2c.h ****  * @brief Shift content to right
 272:Inc/lcd16x2_i2c.h ****  */
 273:Inc/lcd16x2_i2c.h **** void lcd16x2_i2c_shiftRight(uint8_t offset)
 274:Inc/lcd16x2_i2c.h **** {
 764              		.loc 1 274 1 is_stmt 1 view -0
 765              		.cfi_startproc
 766              		@ args = 0, pretend = 0, frame = 0
 767              		@ frame_needed = 0, uses_anonymous_args = 0
 768              		.loc 1 274 1 is_stmt 0 view .LVU158
 769 0000 38B5     		push	{r3, r4, r5, lr}
ARM GAS  /var/folders/h5/t6jc6jh127n_294bflj9bdw40000gn/T//ccH8MPpK.s 			page 29


 770              	.LCFI18:
 771              		.cfi_def_cfa_offset 16
 772              		.cfi_offset 3, -16
 773              		.cfi_offset 4, -12
 774              		.cfi_offset 5, -8
 775              		.cfi_offset 14, -4
 776 0002 0546     		mov	r5, r0
 275:Inc/lcd16x2_i2c.h ****   for(uint8_t i=0; i<offset;i++)
 777              		.loc 1 275 3 is_stmt 1 view .LVU159
 778              	.LBB7:
 779              		.loc 1 275 7 view .LVU160
 780              	.LVL67:
 781              		.loc 1 275 15 is_stmt 0 view .LVU161
 782 0004 0024     		movs	r4, #0
 783              		.loc 1 275 3 view .LVU162
 784 0006 04E0     		b	.L45
 785              	.LVL68:
 786              	.L46:
 276:Inc/lcd16x2_i2c.h ****   {
 277:Inc/lcd16x2_i2c.h ****     lcd16x2_i2c_sendCommand(0x1c);
 787              		.loc 1 277 5 is_stmt 1 discriminator 3 view .LVU163
 788 0008 1C20     		movs	r0, #28
 789 000a FFF7FEFF 		bl	lcd16x2_i2c_sendCommand
 790              	.LVL69:
 275:Inc/lcd16x2_i2c.h ****   for(uint8_t i=0; i<offset;i++)
 791              		.loc 1 275 29 discriminator 3 view .LVU164
 275:Inc/lcd16x2_i2c.h ****   for(uint8_t i=0; i<offset;i++)
 792              		.loc 1 275 30 is_stmt 0 discriminator 3 view .LVU165
 793 000e 0134     		adds	r4, r4, #1
 794              	.LVL70:
 275:Inc/lcd16x2_i2c.h ****   for(uint8_t i=0; i<offset;i++)
 795              		.loc 1 275 30 discriminator 3 view .LVU166
 796 0010 E4B2     		uxtb	r4, r4
 797              	.LVL71:
 798              	.L45:
 275:Inc/lcd16x2_i2c.h ****   for(uint8_t i=0; i<offset;i++)
 799              		.loc 1 275 20 is_stmt 1 discriminator 1 view .LVU167
 275:Inc/lcd16x2_i2c.h ****   for(uint8_t i=0; i<offset;i++)
 800              		.loc 1 275 3 is_stmt 0 discriminator 1 view .LVU168
 801 0012 AC42     		cmp	r4, r5
 802 0014 F8D3     		bcc	.L46
 803              	.LBE7:
 278:Inc/lcd16x2_i2c.h ****   }
 279:Inc/lcd16x2_i2c.h **** }
 804              		.loc 1 279 1 view .LVU169
 805 0016 38BD     		pop	{r3, r4, r5, pc}
 806              		.loc 1 279 1 view .LVU170
 807              		.cfi_endproc
 808              	.LFE144:
 810              		.section	.text.lcd16x2_i2c_shiftLeft,"ax",%progbits
 811              		.align	1
 812              		.global	lcd16x2_i2c_shiftLeft
 813              		.syntax unified
 814              		.thumb
 815              		.thumb_func
 816              		.fpu fpv4-sp-d16
 818              	lcd16x2_i2c_shiftLeft:
ARM GAS  /var/folders/h5/t6jc6jh127n_294bflj9bdw40000gn/T//ccH8MPpK.s 			page 30


 819              	.LVL72:
 820              	.LFB145:
 280:Inc/lcd16x2_i2c.h **** 
 281:Inc/lcd16x2_i2c.h **** /**
 282:Inc/lcd16x2_i2c.h ****  * @brief Shift content to left
 283:Inc/lcd16x2_i2c.h ****  */
 284:Inc/lcd16x2_i2c.h **** void lcd16x2_i2c_shiftLeft(uint8_t offset)
 285:Inc/lcd16x2_i2c.h **** {
 821              		.loc 1 285 1 is_stmt 1 view -0
 822              		.cfi_startproc
 823              		@ args = 0, pretend = 0, frame = 0
 824              		@ frame_needed = 0, uses_anonymous_args = 0
 825              		.loc 1 285 1 is_stmt 0 view .LVU172
 826 0000 38B5     		push	{r3, r4, r5, lr}
 827              	.LCFI19:
 828              		.cfi_def_cfa_offset 16
 829              		.cfi_offset 3, -16
 830              		.cfi_offset 4, -12
 831              		.cfi_offset 5, -8
 832              		.cfi_offset 14, -4
 833 0002 0546     		mov	r5, r0
 286:Inc/lcd16x2_i2c.h ****   for(uint8_t i=0; i<offset;i++)
 834              		.loc 1 286 3 is_stmt 1 view .LVU173
 835              	.LBB8:
 836              		.loc 1 286 7 view .LVU174
 837              	.LVL73:
 838              		.loc 1 286 15 is_stmt 0 view .LVU175
 839 0004 0024     		movs	r4, #0
 840              		.loc 1 286 3 view .LVU176
 841 0006 04E0     		b	.L49
 842              	.LVL74:
 843              	.L50:
 287:Inc/lcd16x2_i2c.h ****   {
 288:Inc/lcd16x2_i2c.h ****     lcd16x2_i2c_sendCommand(0x18);
 844              		.loc 1 288 5 is_stmt 1 discriminator 3 view .LVU177
 845 0008 1820     		movs	r0, #24
 846 000a FFF7FEFF 		bl	lcd16x2_i2c_sendCommand
 847              	.LVL75:
 286:Inc/lcd16x2_i2c.h ****   for(uint8_t i=0; i<offset;i++)
 848              		.loc 1 286 29 discriminator 3 view .LVU178
 286:Inc/lcd16x2_i2c.h ****   for(uint8_t i=0; i<offset;i++)
 849              		.loc 1 286 30 is_stmt 0 discriminator 3 view .LVU179
 850 000e 0134     		adds	r4, r4, #1
 851              	.LVL76:
 286:Inc/lcd16x2_i2c.h ****   for(uint8_t i=0; i<offset;i++)
 852              		.loc 1 286 30 discriminator 3 view .LVU180
 853 0010 E4B2     		uxtb	r4, r4
 854              	.LVL77:
 855              	.L49:
 286:Inc/lcd16x2_i2c.h ****   for(uint8_t i=0; i<offset;i++)
 856              		.loc 1 286 20 is_stmt 1 discriminator 1 view .LVU181
 286:Inc/lcd16x2_i2c.h ****   for(uint8_t i=0; i<offset;i++)
 857              		.loc 1 286 3 is_stmt 0 discriminator 1 view .LVU182
 858 0012 AC42     		cmp	r4, r5
 859 0014 F8D3     		bcc	.L50
 860              	.LBE8:
 289:Inc/lcd16x2_i2c.h ****   }
ARM GAS  /var/folders/h5/t6jc6jh127n_294bflj9bdw40000gn/T//ccH8MPpK.s 			page 31


 290:Inc/lcd16x2_i2c.h **** }
 861              		.loc 1 290 1 view .LVU183
 862 0016 38BD     		pop	{r3, r4, r5, pc}
 863              		.loc 1 290 1 view .LVU184
 864              		.cfi_endproc
 865              	.LFE145:
 867              		.section	.text.lcd16x2_i2c_printf,"ax",%progbits
 868              		.align	1
 869              		.global	lcd16x2_i2c_printf
 870              		.syntax unified
 871              		.thumb
 872              		.thumb_func
 873              		.fpu fpv4-sp-d16
 875              	lcd16x2_i2c_printf:
 876              	.LVL78:
 877              	.LFB146:
 291:Inc/lcd16x2_i2c.h **** 
 292:Inc/lcd16x2_i2c.h **** /**
 293:Inc/lcd16x2_i2c.h ****  * @brief Print to display
 294:Inc/lcd16x2_i2c.h ****  */
 295:Inc/lcd16x2_i2c.h **** void lcd16x2_i2c_printf(const char* str, ...)
 296:Inc/lcd16x2_i2c.h **** {
 878              		.loc 1 296 1 is_stmt 1 view -0
 879              		.cfi_startproc
 880              		@ args = 4, pretend = 16, frame = 24
 881              		@ frame_needed = 0, uses_anonymous_args = 1
 882              		.loc 1 296 1 is_stmt 0 view .LVU186
 883 0000 0FB4     		push	{r0, r1, r2, r3}
 884              	.LCFI20:
 885              		.cfi_def_cfa_offset 16
 886              		.cfi_offset 0, -16
 887              		.cfi_offset 1, -12
 888              		.cfi_offset 2, -8
 889              		.cfi_offset 3, -4
 890 0002 10B5     		push	{r4, lr}
 891              	.LCFI21:
 892              		.cfi_def_cfa_offset 24
 893              		.cfi_offset 4, -24
 894              		.cfi_offset 14, -20
 895 0004 86B0     		sub	sp, sp, #24
 896              	.LCFI22:
 897              		.cfi_def_cfa_offset 48
 898 0006 08AA     		add	r2, sp, #32
 899 0008 52F8041B 		ldr	r1, [r2], #4
 297:Inc/lcd16x2_i2c.h ****   char stringArray[20];
 900              		.loc 1 297 3 is_stmt 1 view .LVU187
 298:Inc/lcd16x2_i2c.h ****   va_list args;
 901              		.loc 1 298 3 view .LVU188
 299:Inc/lcd16x2_i2c.h ****   va_start(args, str);
 902              		.loc 1 299 3 view .LVU189
 903 000c 0092     		str	r2, [sp]
 300:Inc/lcd16x2_i2c.h ****   vsprintf(stringArray, str, args);
 904              		.loc 1 300 3 view .LVU190
 905 000e 01A8     		add	r0, sp, #4
 906 0010 FFF7FEFF 		bl	vsprintf
 907              	.LVL79:
 301:Inc/lcd16x2_i2c.h ****   va_end(args);
ARM GAS  /var/folders/h5/t6jc6jh127n_294bflj9bdw40000gn/T//ccH8MPpK.s 			page 32


 908              		.loc 1 301 3 view .LVU191
 302:Inc/lcd16x2_i2c.h ****   for(uint8_t i=0;  i<strlen(stringArray) && i<16; i++)
 909              		.loc 1 302 3 view .LVU192
 910              	.LBB9:
 911              		.loc 1 302 7 view .LVU193
 912              		.loc 1 302 15 is_stmt 0 view .LVU194
 913 0014 0024     		movs	r4, #0
 914              	.LVL80:
 915              	.L53:
 916              		.loc 1 302 21 is_stmt 1 discriminator 1 view .LVU195
 917              		.loc 1 302 23 is_stmt 0 discriminator 1 view .LVU196
 918 0016 01A8     		add	r0, sp, #4
 919 0018 FFF7FEFF 		bl	strlen
 920              	.LVL81:
 921              		.loc 1 302 3 discriminator 1 view .LVU197
 922 001c 8442     		cmp	r4, r0
 923 001e 0AD2     		bcs	.L52
 924              		.loc 1 302 43 discriminator 3 view .LVU198
 925 0020 0F2C     		cmp	r4, #15
 926 0022 08D8     		bhi	.L52
 303:Inc/lcd16x2_i2c.h ****   {
 304:Inc/lcd16x2_i2c.h ****     lcd16x2_i2c_sendData((uint8_t)stringArray[i]);
 927              		.loc 1 304 5 is_stmt 1 discriminator 4 view .LVU199
 928              		.loc 1 304 46 is_stmt 0 discriminator 4 view .LVU200
 929 0024 06AB     		add	r3, sp, #24
 930 0026 2344     		add	r3, r3, r4
 931              		.loc 1 304 5 discriminator 4 view .LVU201
 932 0028 13F8140C 		ldrb	r0, [r3, #-20]	@ zero_extendqisi2
 933 002c FFF7FEFF 		bl	lcd16x2_i2c_sendData
 934              	.LVL82:
 302:Inc/lcd16x2_i2c.h ****   for(uint8_t i=0;  i<strlen(stringArray) && i<16; i++)
 935              		.loc 1 302 52 is_stmt 1 discriminator 4 view .LVU202
 302:Inc/lcd16x2_i2c.h ****   for(uint8_t i=0;  i<strlen(stringArray) && i<16; i++)
 936              		.loc 1 302 53 is_stmt 0 discriminator 4 view .LVU203
 937 0030 0134     		adds	r4, r4, #1
 938              	.LVL83:
 302:Inc/lcd16x2_i2c.h ****   for(uint8_t i=0;  i<strlen(stringArray) && i<16; i++)
 939              		.loc 1 302 53 discriminator 4 view .LVU204
 940 0032 E4B2     		uxtb	r4, r4
 941              	.LVL84:
 302:Inc/lcd16x2_i2c.h ****   for(uint8_t i=0;  i<strlen(stringArray) && i<16; i++)
 942              		.loc 1 302 53 discriminator 4 view .LVU205
 943 0034 EFE7     		b	.L53
 944              	.L52:
 302:Inc/lcd16x2_i2c.h ****   for(uint8_t i=0;  i<strlen(stringArray) && i<16; i++)
 945              		.loc 1 302 53 discriminator 4 view .LVU206
 946              	.LBE9:
 305:Inc/lcd16x2_i2c.h ****   }
 306:Inc/lcd16x2_i2c.h **** }
 947              		.loc 1 306 1 view .LVU207
 948 0036 06B0     		add	sp, sp, #24
 949              	.LCFI23:
 950              		.cfi_def_cfa_offset 24
 951              		@ sp needed
 952 0038 BDE81040 		pop	{r4, lr}
 953              	.LCFI24:
 954              		.cfi_restore 14
ARM GAS  /var/folders/h5/t6jc6jh127n_294bflj9bdw40000gn/T//ccH8MPpK.s 			page 33


 955              		.cfi_restore 4
 956              		.cfi_def_cfa_offset 16
 957              	.LVL85:
 958              		.loc 1 306 1 view .LVU208
 959 003c 04B0     		add	sp, sp, #16
 960              	.LCFI25:
 961              		.cfi_restore 3
 962              		.cfi_restore 2
 963              		.cfi_restore 1
 964              		.cfi_restore 0
 965              		.cfi_def_cfa_offset 0
 966 003e 7047     		bx	lr
 967              		.cfi_endproc
 968              	.LFE146:
 970              		.section	.text.adxl_write,"ax",%progbits
 971              		.align	1
 972              		.global	adxl_write
 973              		.syntax unified
 974              		.thumb
 975              		.thumb_func
 976              		.fpu fpv4-sp-d16
 978              	adxl_write:
 979              	.LVL86:
 980              	.LFB147:
  71:Src/main.c    ****   uint8_t data[2];
 981              		.loc 2 71 1 is_stmt 1 view -0
 982              		.cfi_startproc
 983              		@ args = 0, pretend = 0, frame = 8
 984              		@ frame_needed = 0, uses_anonymous_args = 0
  71:Src/main.c    ****   uint8_t data[2];
 985              		.loc 2 71 1 is_stmt 0 view .LVU210
 986 0000 10B5     		push	{r4, lr}
 987              	.LCFI26:
 988              		.cfi_def_cfa_offset 8
 989              		.cfi_offset 4, -8
 990              		.cfi_offset 14, -4
 991 0002 82B0     		sub	sp, sp, #8
 992              	.LCFI27:
 993              		.cfi_def_cfa_offset 16
  72:Src/main.c    ****   data[0] = address|0x40;
 994              		.loc 2 72 3 is_stmt 1 view .LVU211
  73:Src/main.c    ****   data[1] = value;
 995              		.loc 2 73 3 view .LVU212
  73:Src/main.c    ****   data[1] = value;
 996              		.loc 2 73 11 is_stmt 0 view .LVU213
 997 0004 40F04000 		orr	r0, r0, #64
 998              	.LVL87:
  73:Src/main.c    ****   data[1] = value;
 999              		.loc 2 73 11 view .LVU214
 1000 0008 8DF80400 		strb	r0, [sp, #4]
  74:Src/main.c    ****   HAL_GPIO_WritePin(GPIOB, GPIO_PIN_6, GPIO_PIN_RESET);
 1001              		.loc 2 74 3 is_stmt 1 view .LVU215
  74:Src/main.c    ****   HAL_GPIO_WritePin(GPIOB, GPIO_PIN_6, GPIO_PIN_RESET);
 1002              		.loc 2 74 11 is_stmt 0 view .LVU216
 1003 000c 8DF80510 		strb	r1, [sp, #5]
  75:Src/main.c    ****   HAL_SPI_Transmit(&hspi1, data, 2, 100);
 1004              		.loc 2 75 3 is_stmt 1 view .LVU217
ARM GAS  /var/folders/h5/t6jc6jh127n_294bflj9bdw40000gn/T//ccH8MPpK.s 			page 34


 1005 0010 094C     		ldr	r4, .L59
 1006 0012 0022     		movs	r2, #0
 1007 0014 4021     		movs	r1, #64
 1008              	.LVL88:
  75:Src/main.c    ****   HAL_SPI_Transmit(&hspi1, data, 2, 100);
 1009              		.loc 2 75 3 is_stmt 0 view .LVU218
 1010 0016 2046     		mov	r0, r4
 1011 0018 FFF7FEFF 		bl	HAL_GPIO_WritePin
 1012              	.LVL89:
  76:Src/main.c    ****   HAL_GPIO_WritePin(GPIOB, GPIO_PIN_6, GPIO_PIN_SET);
 1013              		.loc 2 76 3 is_stmt 1 view .LVU219
 1014 001c 6423     		movs	r3, #100
 1015 001e 0222     		movs	r2, #2
 1016 0020 01A9     		add	r1, sp, #4
 1017 0022 0648     		ldr	r0, .L59+4
 1018 0024 FFF7FEFF 		bl	HAL_SPI_Transmit
 1019              	.LVL90:
  77:Src/main.c    **** }
 1020              		.loc 2 77 3 view .LVU220
 1021 0028 0122     		movs	r2, #1
 1022 002a 4021     		movs	r1, #64
 1023 002c 2046     		mov	r0, r4
 1024 002e FFF7FEFF 		bl	HAL_GPIO_WritePin
 1025              	.LVL91:
  78:Src/main.c    **** 
 1026              		.loc 2 78 1 is_stmt 0 view .LVU221
 1027 0032 02B0     		add	sp, sp, #8
 1028              	.LCFI28:
 1029              		.cfi_def_cfa_offset 8
 1030              		@ sp needed
 1031 0034 10BD     		pop	{r4, pc}
 1032              	.L60:
 1033 0036 00BF     		.align	2
 1034              	.L59:
 1035 0038 00040240 		.word	1073873920
 1036 003c 00000000 		.word	.LANCHOR2
 1037              		.cfi_endproc
 1038              	.LFE147:
 1040              		.section	.text.adxl_read,"ax",%progbits
 1041              		.align	1
 1042              		.global	adxl_read
 1043              		.syntax unified
 1044              		.thumb
 1045              		.thumb_func
 1046              		.fpu fpv4-sp-d16
 1048              	adxl_read:
 1049              	.LVL92:
 1050              	.LFB148:
  81:Src/main.c    ****   // address |= 0x80;
 1051              		.loc 2 81 1 is_stmt 1 view -0
 1052              		.cfi_startproc
 1053              		@ args = 0, pretend = 0, frame = 8
 1054              		@ frame_needed = 0, uses_anonymous_args = 0
  81:Src/main.c    ****   // address |= 0x80;
 1055              		.loc 2 81 1 is_stmt 0 view .LVU223
 1056 0000 30B5     		push	{r4, r5, lr}
 1057              	.LCFI29:
ARM GAS  /var/folders/h5/t6jc6jh127n_294bflj9bdw40000gn/T//ccH8MPpK.s 			page 35


 1058              		.cfi_def_cfa_offset 12
 1059              		.cfi_offset 4, -12
 1060              		.cfi_offset 5, -8
 1061              		.cfi_offset 14, -4
 1062 0002 83B0     		sub	sp, sp, #12
 1063              	.LCFI30:
 1064              		.cfi_def_cfa_offset 24
 1065 0004 8DF80700 		strb	r0, [sp, #7]
  84:Src/main.c    ****   HAL_SPI_Transmit(&hspi1, &address, 1, 10);
 1066              		.loc 2 84 3 is_stmt 1 view .LVU224
 1067 0008 0D4C     		ldr	r4, .L63
 1068 000a 0022     		movs	r2, #0
 1069 000c 4021     		movs	r1, #64
 1070 000e 2046     		mov	r0, r4
 1071              	.LVL93:
  84:Src/main.c    ****   HAL_SPI_Transmit(&hspi1, &address, 1, 10);
 1072              		.loc 2 84 3 is_stmt 0 view .LVU225
 1073 0010 FFF7FEFF 		bl	HAL_GPIO_WritePin
 1074              	.LVL94:
  85:Src/main.c    ****   HAL_SPI_Receive(&hspi1, data_rec, 6, 10);
 1075              		.loc 2 85 3 is_stmt 1 view .LVU226
 1076 0014 0B4D     		ldr	r5, .L63+4
 1077 0016 0A23     		movs	r3, #10
 1078 0018 0122     		movs	r2, #1
 1079 001a 0DF10701 		add	r1, sp, #7
 1080 001e 2846     		mov	r0, r5
 1081 0020 FFF7FEFF 		bl	HAL_SPI_Transmit
 1082              	.LVL95:
  86:Src/main.c    ****   HAL_GPIO_WritePin(GPIOB, GPIO_PIN_6, GPIO_PIN_SET);
 1083              		.loc 2 86 3 view .LVU227
 1084 0024 0A23     		movs	r3, #10
 1085 0026 0622     		movs	r2, #6
 1086 0028 0749     		ldr	r1, .L63+8
 1087 002a 2846     		mov	r0, r5
 1088 002c FFF7FEFF 		bl	HAL_SPI_Receive
 1089              	.LVL96:
  87:Src/main.c    **** }
 1090              		.loc 2 87 3 view .LVU228
 1091 0030 0122     		movs	r2, #1
 1092 0032 4021     		movs	r1, #64
 1093 0034 2046     		mov	r0, r4
 1094 0036 FFF7FEFF 		bl	HAL_GPIO_WritePin
 1095              	.LVL97:
  88:Src/main.c    **** void adxl_init(void)
 1096              		.loc 2 88 1 is_stmt 0 view .LVU229
 1097 003a 03B0     		add	sp, sp, #12
 1098              	.LCFI31:
 1099              		.cfi_def_cfa_offset 12
 1100              		@ sp needed
 1101 003c 30BD     		pop	{r4, r5, pc}
 1102              	.L64:
 1103 003e 00BF     		.align	2
 1104              	.L63:
 1105 0040 00040240 		.word	1073873920
 1106 0044 00000000 		.word	.LANCHOR2
 1107 0048 00000000 		.word	.LANCHOR3
 1108              		.cfi_endproc
ARM GAS  /var/folders/h5/t6jc6jh127n_294bflj9bdw40000gn/T//ccH8MPpK.s 			page 36


 1109              	.LFE148:
 1111              		.section	.text.adxl_init,"ax",%progbits
 1112              		.align	1
 1113              		.global	adxl_init
 1114              		.syntax unified
 1115              		.thumb
 1116              		.thumb_func
 1117              		.fpu fpv4-sp-d16
 1119              	adxl_init:
 1120              	.LFB149:
  90:Src/main.c    ****   adxl_write(0x2d, 0x00); 
 1121              		.loc 2 90 1 is_stmt 1 view -0
 1122              		.cfi_startproc
 1123              		@ args = 0, pretend = 0, frame = 0
 1124              		@ frame_needed = 0, uses_anonymous_args = 0
 1125 0000 08B5     		push	{r3, lr}
 1126              	.LCFI32:
 1127              		.cfi_def_cfa_offset 8
 1128              		.cfi_offset 3, -8
 1129              		.cfi_offset 14, -4
  91:Src/main.c    ****   adxl_write(0x2d, 0x08);
 1130              		.loc 2 91 3 view .LVU231
 1131 0002 0021     		movs	r1, #0
 1132 0004 2D20     		movs	r0, #45
 1133 0006 FFF7FEFF 		bl	adxl_write
 1134              	.LVL98:
  92:Src/main.c    ****   adxl_write(0x31, 0x01);
 1135              		.loc 2 92 3 view .LVU232
 1136 000a 0821     		movs	r1, #8
 1137 000c 2D20     		movs	r0, #45
 1138 000e FFF7FEFF 		bl	adxl_write
 1139              	.LVL99:
  93:Src/main.c    **** }
 1140              		.loc 2 93 3 view .LVU233
 1141 0012 0121     		movs	r1, #1
 1142 0014 3120     		movs	r0, #49
 1143 0016 FFF7FEFF 		bl	adxl_write
 1144              	.LVL100:
  94:Src/main.c    **** void quarterNote(void)
 1145              		.loc 2 94 1 is_stmt 0 view .LVU234
 1146 001a 08BD     		pop	{r3, pc}
 1147              		.cfi_endproc
 1148              	.LFE149:
 1150              		.section	.text.quarterNote,"ax",%progbits
 1151              		.align	1
 1152              		.global	quarterNote
 1153              		.syntax unified
 1154              		.thumb
 1155              		.thumb_func
 1156              		.fpu fpv4-sp-d16
 1158              	quarterNote:
 1159              	.LFB150:
  96:Src/main.c    ****     HAL_GPIO_TogglePin(GPIOB, GPIO_PIN_5);
 1160              		.loc 2 96 3 is_stmt 1 view -0
 1161              		.cfi_startproc
 1162              		@ args = 0, pretend = 0, frame = 0
 1163              		@ frame_needed = 0, uses_anonymous_args = 0
ARM GAS  /var/folders/h5/t6jc6jh127n_294bflj9bdw40000gn/T//ccH8MPpK.s 			page 37


 1164 0000 08B5     		push	{r3, lr}
 1165              	.LCFI33:
 1166              		.cfi_def_cfa_offset 8
 1167              		.cfi_offset 3, -8
 1168              		.cfi_offset 14, -4
  97:Src/main.c    ****     HAL_Delay(300);
 1169              		.loc 2 97 5 view .LVU236
 1170 0002 2021     		movs	r1, #32
 1171 0004 0348     		ldr	r0, .L69
 1172 0006 FFF7FEFF 		bl	HAL_GPIO_TogglePin
 1173              	.LVL101:
  98:Src/main.c    ****   }
 1174              		.loc 2 98 5 view .LVU237
 1175 000a 4FF49670 		mov	r0, #300
 1176 000e FFF7FEFF 		bl	HAL_Delay
 1177              	.LVL102:
  99:Src/main.c    **** 
 1178              		.loc 2 99 3 is_stmt 0 view .LVU238
 1179 0012 08BD     		pop	{r3, pc}
 1180              	.L70:
 1181              		.align	2
 1182              	.L69:
 1183 0014 00040240 		.word	1073873920
 1184              		.cfi_endproc
 1185              	.LFE150:
 1187              		.section	.text.eighthNote,"ax",%progbits
 1188              		.align	1
 1189              		.global	eighthNote
 1190              		.syntax unified
 1191              		.thumb
 1192              		.thumb_func
 1193              		.fpu fpv4-sp-d16
 1195              	eighthNote:
 1196              	.LFB151:
 102:Src/main.c    ****     HAL_GPIO_TogglePin(GPIOB, GPIO_PIN_5);
 1197              		.loc 2 102 3 is_stmt 1 view -0
 1198              		.cfi_startproc
 1199              		@ args = 0, pretend = 0, frame = 0
 1200              		@ frame_needed = 0, uses_anonymous_args = 0
 1201 0000 08B5     		push	{r3, lr}
 1202              	.LCFI34:
 1203              		.cfi_def_cfa_offset 8
 1204              		.cfi_offset 3, -8
 1205              		.cfi_offset 14, -4
 103:Src/main.c    ****     HAL_Delay(150);
 1206              		.loc 2 103 5 view .LVU240
 1207 0002 2021     		movs	r1, #32
 1208 0004 0348     		ldr	r0, .L73
 1209 0006 FFF7FEFF 		bl	HAL_GPIO_TogglePin
 1210              	.LVL103:
 104:Src/main.c    ****   }
 1211              		.loc 2 104 5 view .LVU241
 1212 000a 9620     		movs	r0, #150
 1213 000c FFF7FEFF 		bl	HAL_Delay
 1214              	.LVL104:
 105:Src/main.c    **** 
 1215              		.loc 2 105 3 is_stmt 0 view .LVU242
ARM GAS  /var/folders/h5/t6jc6jh127n_294bflj9bdw40000gn/T//ccH8MPpK.s 			page 38


 1216 0010 08BD     		pop	{r3, pc}
 1217              	.L74:
 1218 0012 00BF     		.align	2
 1219              	.L73:
 1220 0014 00040240 		.word	1073873920
 1221              		.cfi_endproc
 1222              	.LFE151:
 1224              		.section	.text.refrain,"ax",%progbits
 1225              		.align	1
 1226              		.global	refrain
 1227              		.syntax unified
 1228              		.thumb
 1229              		.thumb_func
 1230              		.fpu fpv4-sp-d16
 1232              	refrain:
 1233              	.LFB152:
 108:Src/main.c    ****     quarterNote();
 1234              		.loc 2 108 3 is_stmt 1 view -0
 1235              		.cfi_startproc
 1236              		@ args = 0, pretend = 0, frame = 0
 1237              		@ frame_needed = 0, uses_anonymous_args = 0
 1238 0000 08B5     		push	{r3, lr}
 1239              	.LCFI35:
 1240              		.cfi_def_cfa_offset 8
 1241              		.cfi_offset 3, -8
 1242              		.cfi_offset 14, -4
 109:Src/main.c    ****     eighthNote();
 1243              		.loc 2 109 5 view .LVU244
 1244 0002 FFF7FEFF 		bl	quarterNote
 1245              	.LVL105:
 110:Src/main.c    ****     quarterNote();
 1246              		.loc 2 110 5 view .LVU245
 1247 0006 FFF7FEFF 		bl	eighthNote
 1248              	.LVL106:
 111:Src/main.c    ****     eighthNote();
 1249              		.loc 2 111 5 view .LVU246
 1250 000a FFF7FEFF 		bl	quarterNote
 1251              	.LVL107:
 112:Src/main.c    ****     quarterNote();
 1252              		.loc 2 112 5 view .LVU247
 1253 000e FFF7FEFF 		bl	eighthNote
 1254              	.LVL108:
 113:Src/main.c    ****   }
 1255              		.loc 2 113 5 view .LVU248
 1256 0012 FFF7FEFF 		bl	quarterNote
 1257              	.LVL109:
 114:Src/main.c    **** 
 1258              		.loc 2 114 3 is_stmt 0 view .LVU249
 1259 0016 08BD     		pop	{r3, pc}
 1260              		.cfi_endproc
 1261              	.LFE152:
 1263              		.section	.text.firstTact,"ax",%progbits
 1264              		.align	1
 1265              		.global	firstTact
 1266              		.syntax unified
 1267              		.thumb
 1268              		.thumb_func
ARM GAS  /var/folders/h5/t6jc6jh127n_294bflj9bdw40000gn/T//ccH8MPpK.s 			page 39


 1269              		.fpu fpv4-sp-d16
 1271              	firstTact:
 1272              	.LFB153:
 117:Src/main.c    ****     quarterNote();
 1273              		.loc 2 117 3 is_stmt 1 view -0
 1274              		.cfi_startproc
 1275              		@ args = 0, pretend = 0, frame = 0
 1276              		@ frame_needed = 0, uses_anonymous_args = 0
 1277 0000 08B5     		push	{r3, lr}
 1278              	.LCFI36:
 1279              		.cfi_def_cfa_offset 8
 1280              		.cfi_offset 3, -8
 1281              		.cfi_offset 14, -4
 118:Src/main.c    ****     quarterNote();	
 1282              		.loc 2 118 5 view .LVU251
 1283 0002 FFF7FEFF 		bl	quarterNote
 1284              	.LVL110:
 119:Src/main.c    ****   }
 1285              		.loc 2 119 5 view .LVU252
 1286 0006 FFF7FEFF 		bl	quarterNote
 1287              	.LVL111:
 120:Src/main.c    **** 
 1288              		.loc 2 120 3 is_stmt 0 view .LVU253
 1289 000a 08BD     		pop	{r3, pc}
 1290              		.cfi_endproc
 1291              	.LFE153:
 1293              		.section	.text.secondTact,"ax",%progbits
 1294              		.align	1
 1295              		.global	secondTact
 1296              		.syntax unified
 1297              		.thumb
 1298              		.thumb_func
 1299              		.fpu fpv4-sp-d16
 1301              	secondTact:
 1302              	.LFB154:
 123:Src/main.c    ****     eighthNote();
 1303              		.loc 2 123 3 is_stmt 1 view -0
 1304              		.cfi_startproc
 1305              		@ args = 0, pretend = 0, frame = 0
 1306              		@ frame_needed = 0, uses_anonymous_args = 0
 1307 0000 08B5     		push	{r3, lr}
 1308              	.LCFI37:
 1309              		.cfi_def_cfa_offset 8
 1310              		.cfi_offset 3, -8
 1311              		.cfi_offset 14, -4
 124:Src/main.c    ****     eighthNote();
 1312              		.loc 2 124 5 view .LVU255
 1313 0002 FFF7FEFF 		bl	eighthNote
 1314              	.LVL112:
 125:Src/main.c    ****     quarterNote();	
 1315              		.loc 2 125 5 view .LVU256
 1316 0006 FFF7FEFF 		bl	eighthNote
 1317              	.LVL113:
 126:Src/main.c    ****   }
 1318              		.loc 2 126 5 view .LVU257
 1319 000a FFF7FEFF 		bl	quarterNote
 1320              	.LVL114:
ARM GAS  /var/folders/h5/t6jc6jh127n_294bflj9bdw40000gn/T//ccH8MPpK.s 			page 40


 127:Src/main.c    **** 
 1321              		.loc 2 127 3 is_stmt 0 view .LVU258
 1322 000e 08BD     		pop	{r3, pc}
 1323              		.cfi_endproc
 1324              	.LFE154:
 1326              		.section	.text.playRythm,"ax",%progbits
 1327              		.align	1
 1328              		.global	playRythm
 1329              		.syntax unified
 1330              		.thumb
 1331              		.thumb_func
 1332              		.fpu fpv4-sp-d16
 1334              	playRythm:
 1335              	.LFB155:
 130:Src/main.c    ****     refrain();
 1336              		.loc 2 130 3 is_stmt 1 view -0
 1337              		.cfi_startproc
 1338              		@ args = 0, pretend = 0, frame = 0
 1339              		@ frame_needed = 0, uses_anonymous_args = 0
 1340 0000 08B5     		push	{r3, lr}
 1341              	.LCFI38:
 1342              		.cfi_def_cfa_offset 8
 1343              		.cfi_offset 3, -8
 1344              		.cfi_offset 14, -4
 131:Src/main.c    ****     firstTact();
 1345              		.loc 2 131 5 view .LVU260
 1346 0002 FFF7FEFF 		bl	refrain
 1347              	.LVL115:
 132:Src/main.c    ****     refrain();
 1348              		.loc 2 132 5 view .LVU261
 1349 0006 FFF7FEFF 		bl	firstTact
 1350              	.LVL116:
 133:Src/main.c    ****     secondTact();
 1351              		.loc 2 133 5 view .LVU262
 1352 000a FFF7FEFF 		bl	refrain
 1353              	.LVL117:
 134:Src/main.c    ****   }
 1354              		.loc 2 134 5 view .LVU263
 1355 000e FFF7FEFF 		bl	secondTact
 1356              	.LVL118:
 135:Src/main.c    **** 
 1357              		.loc 2 135 3 is_stmt 0 view .LVU264
 1358 0012 08BD     		pop	{r3, pc}
 1359              		.cfi_endproc
 1360              	.LFE155:
 1362              		.section	.rodata.playDelay.str1.4,"aMS",%progbits,1
 1363              		.align	2
 1364              	.LC0:
 1365 0000 2564200D 		.ascii	"%d \015\012\000"
 1365      0A00
 1366              		.section	.text.playDelay,"ax",%progbits
 1367              		.align	1
 1368              		.global	playDelay
 1369              		.syntax unified
 1370              		.thumb
 1371              		.thumb_func
 1372              		.fpu fpv4-sp-d16
ARM GAS  /var/folders/h5/t6jc6jh127n_294bflj9bdw40000gn/T//ccH8MPpK.s 			page 41


 1374              	playDelay:
 1375              	.LVL119:
 1376              	.LFB156:
 137:Src/main.c    ****     while(1){
 1377              		.loc 2 137 36 is_stmt 1 view -0
 1378              		.cfi_startproc
 1379              		@ args = 0, pretend = 0, frame = 24
 1380              		@ frame_needed = 0, uses_anonymous_args = 0
 137:Src/main.c    ****     while(1){
 1381              		.loc 2 137 36 is_stmt 0 view .LVU266
 1382 0000 10B5     		push	{r4, lr}
 1383              	.LCFI39:
 1384              		.cfi_def_cfa_offset 8
 1385              		.cfi_offset 4, -8
 1386              		.cfi_offset 14, -4
 1387 0002 86B0     		sub	sp, sp, #24
 1388              	.LCFI40:
 1389              		.cfi_def_cfa_offset 32
 1390 0004 0446     		mov	r4, r0
 1391 0006 12E0     		b	.L85
 1392              	.LVL120:
 1393              	.L87:
 1394              	.LBB10:
 145:Src/main.c    ****       char measured_delay[6];
 1395              		.loc 2 145 7 is_stmt 1 view .LVU267
 1396 0008 2021     		movs	r1, #32
 1397 000a 0F48     		ldr	r0, .L88
 1398 000c FFF7FEFF 		bl	HAL_GPIO_TogglePin
 1399              	.LVL121:
 146:Src/main.c    ****       sprintf(measured_delay, "%d \r\n", *delayed);
 1400              		.loc 2 146 7 view .LVU268
 147:Src/main.c    ****       HAL_UART_Transmit(&huart2, (uint16_t *)&measured_delay,sizeof(measured_delay), 0xFFFF);
 1401              		.loc 2 147 7 view .LVU269
 1402 0010 2288     		ldrh	r2, [r4]
 1403 0012 0E49     		ldr	r1, .L88+4
 1404 0014 04A8     		add	r0, sp, #16
 1405 0016 FFF7FEFF 		bl	sprintf
 1406              	.LVL122:
 148:Src/main.c    ****       HAL_Delay(*delayed);
 1407              		.loc 2 148 7 view .LVU270
 1408 001a 4FF6FF73 		movw	r3, #65535
 1409 001e 0622     		movs	r2, #6
 1410 0020 04A9     		add	r1, sp, #16
 1411 0022 0B48     		ldr	r0, .L88+8
 1412 0024 FFF7FEFF 		bl	HAL_UART_Transmit
 1413              	.LVL123:
 149:Src/main.c    ****     }
 1414              		.loc 2 149 7 view .LVU271
 1415 0028 2088     		ldrh	r0, [r4]
 1416 002a FFF7FEFF 		bl	HAL_Delay
 1417              	.LVL124:
 1418              	.LBE10:
 138:Src/main.c    ****       int x,y,z;
 1419              		.loc 2 138 10 view .LVU272
 1420              	.L85:
 138:Src/main.c    ****       int x,y,z;
 1421              		.loc 2 138 5 view .LVU273
ARM GAS  /var/folders/h5/t6jc6jh127n_294bflj9bdw40000gn/T//ccH8MPpK.s 			page 42


 1422              	.LBB11:
 139:Src/main.c    ****       ADXL345readAccel_x_y_z(&adxl, &x, &y, &z); 
 1423              		.loc 2 139 7 view .LVU274
 140:Src/main.c    ****       if(z < -5)
 1424              		.loc 2 140 7 view .LVU275
 1425 002e 03AB     		add	r3, sp, #12
 1426 0030 02AA     		add	r2, sp, #8
 1427 0032 01A9     		add	r1, sp, #4
 1428 0034 0748     		ldr	r0, .L88+12
 1429 0036 FFF7FEFF 		bl	ADXL345readAccel_x_y_z
 1430              	.LVL125:
 141:Src/main.c    ****       {
 1431              		.loc 2 141 7 view .LVU276
 141:Src/main.c    ****       {
 1432              		.loc 2 141 12 is_stmt 0 view .LVU277
 1433 003a 039B     		ldr	r3, [sp, #12]
 141:Src/main.c    ****       {
 1434              		.loc 2 141 9 view .LVU278
 1435 003c 13F1050F 		cmn	r3, #5
 1436 0040 E2DA     		bge	.L87
 1437              	.LBE11:
 151:Src/main.c    **** 
 1438              		.loc 2 151 3 view .LVU279
 1439 0042 06B0     		add	sp, sp, #24
 1440              	.LCFI41:
 1441              		.cfi_def_cfa_offset 8
 1442              		@ sp needed
 1443 0044 10BD     		pop	{r4, pc}
 1444              	.LVL126:
 1445              	.L89:
 151:Src/main.c    **** 
 1446              		.loc 2 151 3 view .LVU280
 1447 0046 00BF     		.align	2
 1448              	.L88:
 1449 0048 00040240 		.word	1073873920
 1450 004c 00000000 		.word	.LC0
 1451 0050 00000000 		.word	.LANCHOR5
 1452 0054 00000000 		.word	.LANCHOR4
 1453              		.cfi_endproc
 1454              	.LFE156:
 1456              		.section	.rodata.listen_for_rythm.str1.4,"aMS",%progbits,1
 1457              		.align	2
 1458              	.LC1:
 1459 0000 783D2564 		.ascii	"x=%d y=%d z=%d \015\012\000"
 1459      20793D25 
 1459      64207A3D 
 1459      2564200D 
 1459      0A00
 1460 0012 0000     		.align	2
 1461              	.LC2:
 1462 0014 54617020 		.ascii	"Tap Detected\000"
 1462      44657465 
 1462      63746564 
 1462      00
 1463 0021 000000   		.align	2
 1464              	.LC3:
 1465 0024 5365636F 		.ascii	"Second Tap Detected\000"
ARM GAS  /var/folders/h5/t6jc6jh127n_294bflj9bdw40000gn/T//ccH8MPpK.s 			page 43


 1465      6E642054 
 1465      61702044 
 1465      65746563 
 1465      74656400 
 1466              		.align	2
 1467              	.LC4:
 1468 0038 506C6179 		.ascii	"Playing\000"
 1468      696E6700 
 1469              		.section	.text.listen_for_rythm,"ax",%progbits
 1470              		.align	1
 1471              		.global	listen_for_rythm
 1472              		.syntax unified
 1473              		.thumb
 1474              		.thumb_func
 1475              		.fpu fpv4-sp-d16
 1477              	listen_for_rythm:
 1478              	.LFB157:
 154:Src/main.c    ****     uint16_t timerTap = 0;
 1479              		.loc 2 154 3 is_stmt 1 view -0
 1480              		.cfi_startproc
 1481              		@ args = 0, pretend = 0, frame = 64
 1482              		@ frame_needed = 0, uses_anonymous_args = 0
 1483 0000 30B5     		push	{r4, r5, lr}
 1484              	.LCFI42:
 1485              		.cfi_def_cfa_offset 12
 1486              		.cfi_offset 4, -12
 1487              		.cfi_offset 5, -8
 1488              		.cfi_offset 14, -4
 1489 0002 93B0     		sub	sp, sp, #76
 1490              	.LCFI43:
 1491              		.cfi_def_cfa_offset 88
 155:Src/main.c    ****     uint8_t delayStep = 45;
 1492              		.loc 2 155 5 view .LVU282
 155:Src/main.c    ****     uint8_t delayStep = 45;
 1493              		.loc 2 155 14 is_stmt 0 view .LVU283
 1494 0004 0023     		movs	r3, #0
 1495 0006 ADF84630 		strh	r3, [sp, #70]	@ movhi
 156:Src/main.c    ****     
 1496              		.loc 2 156 5 is_stmt 1 view .LVU284
 1497              	.LVL127:
 156:Src/main.c    ****     
 1498              		.loc 2 156 5 is_stmt 0 view .LVU285
 1499 000a 08E0     		b	.L95
 1500              	.L93:
 1501              	.LBB12:
 181:Src/main.c    ****       {
 1502              		.loc 2 181 12 is_stmt 1 view .LVU286
 181:Src/main.c    ****       {
 1503              		.loc 2 181 14 is_stmt 0 view .LVU287
 1504 000c 0A2B     		cmp	r3, #10
 1505 000e 03DD     		ble	.L94
 181:Src/main.c    ****       {
 1506              		.loc 2 181 34 discriminator 1 view .LVU288
 1507 0010 BDF84630 		ldrh	r3, [sp, #70]
 181:Src/main.c    ****       {
 1508              		.loc 2 181 22 discriminator 1 view .LVU289
 1509 0014 C82B     		cmp	r3, #200
ARM GAS  /var/folders/h5/t6jc6jh127n_294bflj9bdw40000gn/T//ccH8MPpK.s 			page 44


 1510 0016 3AD8     		bhi	.L98
 1511              	.L94:
 192:Src/main.c    ****     }
 1512              		.loc 2 192 7 is_stmt 1 discriminator 1 view .LVU290
 1513 0018 2D20     		movs	r0, #45
 1514 001a FFF7FEFF 		bl	HAL_Delay
 1515              	.LVL128:
 1516              	.LBE12:
 158:Src/main.c    ****     {
 1517              		.loc 2 158 10 discriminator 1 view .LVU291
 1518              	.L95:
 158:Src/main.c    ****     {
 1519              		.loc 2 158 5 view .LVU292
 1520              	.LBB15:
 161:Src/main.c    ****       char gravity2Data[18];
 1521              		.loc 2 161 7 view .LVU293
 162:Src/main.c    ****       ADXL345readAccel_x_y_z(&adxl, &x, &y, &z); 
 1522              		.loc 2 162 7 view .LVU294
 163:Src/main.c    ****       sprintf(gravity2Data, "x=%d y=%d z=%d \r\n", x,y,z);
 1523              		.loc 2 163 7 view .LVU295
 1524 001e 04AB     		add	r3, sp, #16
 1525 0020 03AA     		add	r2, sp, #12
 1526 0022 02A9     		add	r1, sp, #8
 1527 0024 4148     		ldr	r0, .L100
 1528 0026 FFF7FEFF 		bl	ADXL345readAccel_x_y_z
 1529              	.LVL129:
 164:Src/main.c    ****       HAL_UART_Transmit(&huart2, (uint8_t *)&gravity2Data,sizeof(gravity2Data), 0xFFFF);
 1530              		.loc 2 164 7 view .LVU296
 1531 002a 049B     		ldr	r3, [sp, #16]
 1532 002c 0093     		str	r3, [sp]
 1533 002e 039B     		ldr	r3, [sp, #12]
 1534 0030 029A     		ldr	r2, [sp, #8]
 1535 0032 3F49     		ldr	r1, .L100+4
 1536 0034 07A8     		add	r0, sp, #28
 1537 0036 FFF7FEFF 		bl	sprintf
 1538              	.LVL130:
 165:Src/main.c    **** 
 1539              		.loc 2 165 7 view .LVU297
 1540 003a 4FF6FF73 		movw	r3, #65535
 1541 003e 1222     		movs	r2, #18
 1542 0040 07A9     		add	r1, sp, #28
 1543 0042 3C48     		ldr	r0, .L100+8
 1544 0044 FFF7FEFF 		bl	HAL_UART_Transmit
 1545              	.LVL131:
 167:Src/main.c    ****       {
 1546              		.loc 2 167 7 view .LVU298
 167:Src/main.c    ****       {
 1547              		.loc 2 167 12 is_stmt 0 view .LVU299
 1548 0048 049B     		ldr	r3, [sp, #16]
 167:Src/main.c    ****       {
 1549              		.loc 2 167 9 view .LVU300
 1550 004a 002B     		cmp	r3, #0
 1551 004c 41DB     		blt	.L91
 171:Src/main.c    ****       {
 1552              		.loc 2 171 7 is_stmt 1 view .LVU301
 171:Src/main.c    ****       {
 1553              		.loc 2 171 19 is_stmt 0 view .LVU302
ARM GAS  /var/folders/h5/t6jc6jh127n_294bflj9bdw40000gn/T//ccH8MPpK.s 			page 45


 1554 004e BDF84630 		ldrh	r3, [sp, #70]
 171:Src/main.c    ****       {
 1555              		.loc 2 171 9 view .LVU303
 1556 0052 13B1     		cbz	r3, .L92
 173:Src/main.c    ****       }
 1557              		.loc 2 173 9 is_stmt 1 view .LVU304
 173:Src/main.c    ****       }
 1558              		.loc 2 173 18 is_stmt 0 view .LVU305
 1559 0054 2D33     		adds	r3, r3, #45
 1560 0056 ADF84630 		strh	r3, [sp, #70]	@ movhi
 1561              	.L92:
 175:Src/main.c    ****       {
 1562              		.loc 2 175 7 is_stmt 1 view .LVU306
 175:Src/main.c    ****       {
 1563              		.loc 2 175 12 is_stmt 0 view .LVU307
 1564 005a 039B     		ldr	r3, [sp, #12]
 175:Src/main.c    ****       {
 1565              		.loc 2 175 9 view .LVU308
 1566 005c 0A2B     		cmp	r3, #10
 1567 005e D5DD     		ble	.L93
 175:Src/main.c    ****       {
 1568              		.loc 2 175 29 discriminator 1 view .LVU309
 1569 0060 BDF84620 		ldrh	r2, [sp, #70]
 175:Src/main.c    ****       {
 1570              		.loc 2 175 17 discriminator 1 view .LVU310
 1571 0064 002A     		cmp	r2, #0
 1572 0066 D1D1     		bne	.L93
 1573              	.LBB13:
 177:Src/main.c    ****         char TapDetection[] = "Tap Detected";
 1574              		.loc 2 177 9 is_stmt 1 view .LVU311
 177:Src/main.c    ****         char TapDetection[] = "Tap Detected";
 1575              		.loc 2 177 18 is_stmt 0 view .LVU312
 1576 0068 0132     		adds	r2, r2, #1
 1577 006a ADF84620 		strh	r2, [sp, #70]	@ movhi
 178:Src/main.c    ****         HAL_UART_Transmit(&huart2, (uint8_t *)&TapDetection,sizeof(TapDetection), 0xFFFF);
 1578              		.loc 2 178 9 is_stmt 1 view .LVU313
 178:Src/main.c    ****         HAL_UART_Transmit(&huart2, (uint8_t *)&TapDetection,sizeof(TapDetection), 0xFFFF);
 1579              		.loc 2 178 14 is_stmt 0 view .LVU314
 1580 006e 324B     		ldr	r3, .L100+12
 1581 0070 0DF1300C 		add	ip, sp, #48
 1582 0074 0FCB     		ldm	r3, {r0, r1, r2, r3}
 1583 0076 ACE80700 		stmia	ip!, {r0, r1, r2}
 1584 007a 8CF80030 		strb	r3, [ip]
 179:Src/main.c    ****       }
 1585              		.loc 2 179 9 is_stmt 1 view .LVU315
 1586 007e 4FF6FF73 		movw	r3, #65535
 1587 0082 0D22     		movs	r2, #13
 1588 0084 0CA9     		add	r1, sp, #48
 1589 0086 2B48     		ldr	r0, .L100+8
 1590 0088 FFF7FEFF 		bl	HAL_UART_Transmit
 1591              	.LVL132:
 1592              	.LBE13:
 176:Src/main.c    ****         timerTap += 1;
 1593              		.loc 2 176 7 is_stmt 0 view .LVU316
 1594 008c C4E7     		b	.L94
 1595              	.L98:
 1596              	.LBB14:
ARM GAS  /var/folders/h5/t6jc6jh127n_294bflj9bdw40000gn/T//ccH8MPpK.s 			page 46


 183:Src/main.c    ****         char SecondTapDetection[] = "Second Tap Detected";
 1597              		.loc 2 183 9 is_stmt 1 view .LVU317
 183:Src/main.c    ****         char SecondTapDetection[] = "Second Tap Detected";
 1598              		.loc 2 183 18 is_stmt 0 view .LVU318
 1599 008e 2D33     		adds	r3, r3, #45
 1600 0090 1FFA83FC 		uxth	ip, r3
 1601 0094 ADF846C0 		strh	ip, [sp, #70]	@ movhi
 184:Src/main.c    ****         char measured_delay[6];
 1602              		.loc 2 184 9 is_stmt 1 view .LVU319
 184:Src/main.c    ****         char measured_delay[6];
 1603              		.loc 2 184 14 is_stmt 0 view .LVU320
 1604 0098 0DF1300E 		add	lr, sp, #48
 1605 009c 274C     		ldr	r4, .L100+16
 1606 009e 0FCC     		ldmia	r4!, {r0, r1, r2, r3}
 1607 00a0 AEE80F00 		stmia	lr!, {r0, r1, r2, r3}
 1608 00a4 2368     		ldr	r3, [r4]
 1609 00a6 CEF80030 		str	r3, [lr]
 185:Src/main.c    ****         sprintf(measured_delay, "%d \r\n", timerTap);
 1610              		.loc 2 185 9 is_stmt 1 view .LVU321
 186:Src/main.c    ****         HAL_UART_Transmit(&huart2, (uint8_t *)&SecondTapDetection,sizeof(SecondTapDetection), 0xFFF
 1611              		.loc 2 186 9 view .LVU322
 1612 00aa 6246     		mov	r2, ip
 1613 00ac 2449     		ldr	r1, .L100+20
 1614 00ae 05A8     		add	r0, sp, #20
 1615 00b0 FFF7FEFF 		bl	sprintf
 1616              	.LVL133:
 187:Src/main.c    ****         HAL_UART_Transmit(&huart2, (uint8_t *)&measured_delay,sizeof(measured_delay), 0xFFFF);
 1617              		.loc 2 187 9 view .LVU323
 1618 00b4 1F4C     		ldr	r4, .L100+8
 1619 00b6 4FF6FF73 		movw	r3, #65535
 1620 00ba 1422     		movs	r2, #20
 1621 00bc 0CA9     		add	r1, sp, #48
 1622 00be 2046     		mov	r0, r4
 1623 00c0 FFF7FEFF 		bl	HAL_UART_Transmit
 1624              	.LVL134:
 188:Src/main.c    ****         break;
 1625              		.loc 2 188 9 view .LVU324
 1626 00c4 4FF6FF73 		movw	r3, #65535
 1627 00c8 0622     		movs	r2, #6
 1628 00ca 05A9     		add	r1, sp, #20
 1629 00cc 2046     		mov	r0, r4
 1630 00ce FFF7FEFF 		bl	HAL_UART_Transmit
 1631              	.LVL135:
 189:Src/main.c    ****       }
 1632              		.loc 2 189 9 view .LVU325
 1633              	.L91:
 1634              	.LBE14:
 1635              	.LBE15:
 195:Src/main.c    ****     {
 1636              		.loc 2 195 5 discriminator 2 view .LVU326
 195:Src/main.c    ****     {
 1637              		.loc 2 195 17 is_stmt 0 discriminator 2 view .LVU327
 1638 00d2 BDF84620 		ldrh	r2, [sp, #70]
 195:Src/main.c    ****     {
 1639              		.loc 2 195 7 discriminator 2 view .LVU328
 1640 00d6 B2F5967F 		cmp	r2, #300
 1641 00da 01D8     		bhi	.L99
ARM GAS  /var/folders/h5/t6jc6jh127n_294bflj9bdw40000gn/T//ccH8MPpK.s 			page 47


 1642              	.L96:
 206:Src/main.c    **** 
 1643              		.loc 2 206 3 discriminator 4 view .LVU329
 1644 00dc 13B0     		add	sp, sp, #76
 1645              	.LCFI44:
 1646              		.cfi_remember_state
 1647              		.cfi_def_cfa_offset 12
 1648              		@ sp needed
 1649 00de 30BD     		pop	{r4, r5, pc}
 1650              	.L99:
 1651              	.LCFI45:
 1652              		.cfi_restore_state
 1653              	.LBB16:
 197:Src/main.c    ****       sprintf(measured_delay, "%d \r\n", timerTap);
 1654              		.loc 2 197 7 is_stmt 1 view .LVU330
 198:Src/main.c    ****       char Playing[] = "Playing";
 1655              		.loc 2 198 7 view .LVU331
 1656 00e0 1749     		ldr	r1, .L100+20
 1657 00e2 07A8     		add	r0, sp, #28
 1658 00e4 FFF7FEFF 		bl	sprintf
 1659              	.LVL136:
 199:Src/main.c    ****       HAL_UART_Transmit(&huart2, (uint8_t *)&Playing,sizeof(Playing), 0xFFFF);
 1660              		.loc 2 199 7 view .LVU332
 199:Src/main.c    ****       HAL_UART_Transmit(&huart2, (uint8_t *)&Playing,sizeof(Playing), 0xFFFF);
 1661              		.loc 2 199 12 is_stmt 0 view .LVU333
 1662 00e8 164B     		ldr	r3, .L100+24
 1663 00ea 0CAC     		add	r4, sp, #48
 1664 00ec 93E80300 		ldm	r3, {r0, r1}
 1665 00f0 84E80300 		stm	r4, {r0, r1}
 200:Src/main.c    ****       HAL_UART_Transmit(&huart2, (uint8_t *)&measured_delay,sizeof(measured_delay), 0xFFFF);
 1666              		.loc 2 200 7 is_stmt 1 view .LVU334
 1667 00f4 0F4D     		ldr	r5, .L100+8
 1668 00f6 4FF6FF73 		movw	r3, #65535
 1669 00fa 0822     		movs	r2, #8
 1670 00fc 2146     		mov	r1, r4
 1671 00fe 2846     		mov	r0, r5
 1672 0100 FFF7FEFF 		bl	HAL_UART_Transmit
 1673              	.LVL137:
 201:Src/main.c    ****       lcd16x2_i2c_printf(measured_delay);
 1674              		.loc 2 201 7 view .LVU335
 1675 0104 4FF6FF73 		movw	r3, #65535
 1676 0108 0622     		movs	r2, #6
 1677 010a 07A9     		add	r1, sp, #28
 1678 010c 2846     		mov	r0, r5
 1679 010e FFF7FEFF 		bl	HAL_UART_Transmit
 1680              	.LVL138:
 202:Src/main.c    ****       HAL_Delay(2000);
 1681              		.loc 2 202 7 view .LVU336
 1682 0112 07A8     		add	r0, sp, #28
 1683 0114 FFF7FEFF 		bl	lcd16x2_i2c_printf
 1684              	.LVL139:
 203:Src/main.c    ****       playDelay(&timerTap);
 1685              		.loc 2 203 7 view .LVU337
 1686 0118 4FF4FA60 		mov	r0, #2000
 1687 011c FFF7FEFF 		bl	HAL_Delay
 1688              	.LVL140:
 204:Src/main.c    ****     }
ARM GAS  /var/folders/h5/t6jc6jh127n_294bflj9bdw40000gn/T//ccH8MPpK.s 			page 48


 1689              		.loc 2 204 7 view .LVU338
 1690 0120 0DF14600 		add	r0, sp, #70
 1691 0124 FFF7FEFF 		bl	playDelay
 1692              	.LVL141:
 1693 0128 D8E7     		b	.L96
 1694              	.L101:
 1695 012a 00BF     		.align	2
 1696              	.L100:
 1697 012c 00000000 		.word	.LANCHOR4
 1698 0130 00000000 		.word	.LC1
 1699 0134 00000000 		.word	.LANCHOR5
 1700 0138 14000000 		.word	.LC2
 1701 013c 24000000 		.word	.LC3
 1702 0140 00000000 		.word	.LC0
 1703 0144 38000000 		.word	.LC4
 1704              	.LBE16:
 1705              		.cfi_endproc
 1706              	.LFE157:
 1708              		.section	.rodata.scanI2C.str1.4,"aMS",%progbits,1
 1709              		.align	2
 1710              	.LC5:
 1711 0000 5363616E 		.ascii	"Scanning I2C bus:\015\000"
 1711      6E696E67 
 1711      20493243 
 1711      20627573 
 1711      3A0D00
 1712 0013 00       		.align	2
 1713              	.LC7:
 1714 0014 30782558 		.ascii	"0x%X\000"
 1714      00
 1715 0019 000000   		.align	2
 1716              	.LC8:
 1717 001c 30782558 		.ascii	"0x%X\015\012\000"
 1717      0D0A00
 1718 0023 00       		.align	2
 1719              	.LC9:
 1720 0024 0D00     		.ascii	"\015\000"
 1721 0026 0000     		.align	2
 1722              	.LC6:
 1723 0028 5363616E 		.ascii	"Scanning I2C bus: \015\012\000"
 1723      6E696E67 
 1723      20493243 
 1723      20627573 
 1723      3A200D0A 
 1724              		.section	.text.scanI2C,"ax",%progbits
 1725              		.align	1
 1726              		.global	scanI2C
 1727              		.syntax unified
 1728              		.thumb
 1729              		.thumb_func
 1730              		.fpu fpv4-sp-d16
 1732              	scanI2C:
 1733              	.LFB158:
 208:Src/main.c    ****     printf("Scanning I2C bus:\r\n");
 1734              		.loc 2 208 21 view -0
 1735              		.cfi_startproc
 1736              		@ args = 0, pretend = 0, frame = 80
ARM GAS  /var/folders/h5/t6jc6jh127n_294bflj9bdw40000gn/T//ccH8MPpK.s 			page 49


 1737              		@ frame_needed = 0, uses_anonymous_args = 0
 1738 0000 30B5     		push	{r4, r5, lr}
 1739              	.LCFI46:
 1740              		.cfi_def_cfa_offset 12
 1741              		.cfi_offset 4, -12
 1742              		.cfi_offset 5, -8
 1743              		.cfi_offset 14, -4
 1744 0002 95B0     		sub	sp, sp, #84
 1745              	.LCFI47:
 1746              		.cfi_def_cfa_offset 96
 209:Src/main.c    ****     char scanningMsg2Data[21] = "Scanning I2C bus: \r\n";
 1747              		.loc 2 209 5 view .LVU340
 1748 0004 1F48     		ldr	r0, .L110
 1749 0006 FFF7FEFF 		bl	puts
 1750              	.LVL142:
 210:Src/main.c    ****     HAL_UART_Transmit(&huart2, (uint8_t *)&scanningMsg2Data,sizeof(scanningMsg2Data), 0xFFFF);
 1751              		.loc 2 210 5 view .LVU341
 210:Src/main.c    ****     HAL_UART_Transmit(&huart2, (uint8_t *)&scanningMsg2Data,sizeof(scanningMsg2Data), 0xFFFF);
 1752              		.loc 2 210 10 is_stmt 0 view .LVU342
 1753 000a 0EAC     		add	r4, sp, #56
 1754 000c 1E4D     		ldr	r5, .L110+4
 1755 000e 0FCD     		ldmia	r5!, {r0, r1, r2, r3}
 1756 0010 0FC4     		stmia	r4!, {r0, r1, r2, r3}
 1757 0012 95E80300 		ldm	r5, {r0, r1}
 1758 0016 44F8040B 		str	r0, [r4], #4
 1759 001a 2170     		strb	r1, [r4]
 211:Src/main.c    ****     HAL_StatusTypeDef result;
 1760              		.loc 2 211 5 is_stmt 1 view .LVU343
 1761 001c 4FF6FF73 		movw	r3, #65535
 1762 0020 1522     		movs	r2, #21
 1763 0022 0EA9     		add	r1, sp, #56
 1764 0024 1948     		ldr	r0, .L110+8
 1765 0026 FFF7FEFF 		bl	HAL_UART_Transmit
 1766              	.LVL143:
 212:Src/main.c    ****     uint8_t i;
 1767              		.loc 2 212 5 view .LVU344
 213:Src/main.c    ****     for (i=1; i<128; i++)
 1768              		.loc 2 213 5 view .LVU345
 214:Src/main.c    ****     {
 1769              		.loc 2 214 5 view .LVU346
 214:Src/main.c    ****     {
 1770              		.loc 2 214 11 is_stmt 0 view .LVU347
 1771 002a 0124     		movs	r4, #1
 214:Src/main.c    ****     {
 1772              		.loc 2 214 5 view .LVU348
 1773 002c 05E0     		b	.L103
 1774              	.LVL144:
 1775              	.L109:
 219:Src/main.c    ****       }
 1776              		.loc 2 219 9 is_stmt 1 view .LVU349
 1777 002e 2E20     		movs	r0, #46
 1778              	.LVL145:
 219:Src/main.c    ****       }
 1779              		.loc 2 219 9 is_stmt 0 view .LVU350
 1780 0030 FFF7FEFF 		bl	putchar
 1781              	.LVL146:
 1782 0034 0DE0     		b	.L104
ARM GAS  /var/folders/h5/t6jc6jh127n_294bflj9bdw40000gn/T//ccH8MPpK.s 			page 50


 1783              	.L105:
 214:Src/main.c    ****     {
 1784              		.loc 2 214 22 is_stmt 1 discriminator 2 view .LVU351
 214:Src/main.c    ****     {
 1785              		.loc 2 214 23 is_stmt 0 discriminator 2 view .LVU352
 1786 0036 0134     		adds	r4, r4, #1
 1787              	.LVL147:
 214:Src/main.c    ****     {
 1788              		.loc 2 214 23 discriminator 2 view .LVU353
 1789 0038 E4B2     		uxtb	r4, r4
 1790              	.LVL148:
 1791              	.L103:
 214:Src/main.c    ****     {
 1792              		.loc 2 214 15 is_stmt 1 discriminator 1 view .LVU354
 214:Src/main.c    ****     {
 1793              		.loc 2 214 5 is_stmt 0 discriminator 1 view .LVU355
 1794 003a 14F0800F 		tst	r4, #128
 1795 003e 1BD1     		bne	.L108
 216:Src/main.c    ****       if (result != HAL_OK) // HAL_ERROR or HAL_BUSY or HAL_TIMEOUT
 1796              		.loc 2 216 7 is_stmt 1 view .LVU356
 216:Src/main.c    ****       if (result != HAL_OK) // HAL_ERROR or HAL_BUSY or HAL_TIMEOUT
 1797              		.loc 2 216 16 is_stmt 0 view .LVU357
 1798 0040 0223     		movs	r3, #2
 1799 0042 1A46     		mov	r2, r3
 1800 0044 6100     		lsls	r1, r4, #1
 1801 0046 1248     		ldr	r0, .L110+12
 1802 0048 FFF7FEFF 		bl	HAL_I2C_IsDeviceReady
 1803              	.LVL149:
 217:Src/main.c    ****       {
 1804              		.loc 2 217 7 is_stmt 1 view .LVU358
 217:Src/main.c    ****       {
 1805              		.loc 2 217 10 is_stmt 0 view .LVU359
 1806 004c 0546     		mov	r5, r0
 1807 004e 0028     		cmp	r0, #0
 1808 0050 EDD1     		bne	.L109
 1809              	.LVL150:
 1810              	.L104:
 221:Src/main.c    ****       {
 1811              		.loc 2 221 7 is_stmt 1 view .LVU360
 221:Src/main.c    ****       {
 1812              		.loc 2 221 10 is_stmt 0 view .LVU361
 1813 0052 002D     		cmp	r5, #0
 1814 0054 EFD1     		bne	.L105
 1815              	.LBB17:
 223:Src/main.c    ****         char port2Data[50];
 1816              		.loc 2 223 9 is_stmt 1 view .LVU362
 1817 0056 2146     		mov	r1, r4
 1818 0058 0E48     		ldr	r0, .L110+16
 1819 005a FFF7FEFF 		bl	printf
 1820              	.LVL151:
 224:Src/main.c    ****         sprintf(port2Data, "0x%X\r\n", i);
 1821              		.loc 2 224 9 view .LVU363
 225:Src/main.c    ****         HAL_UART_Transmit(&huart2, (uint8_t *)&port2Data,sizeof(port2Data), 0xFFFF);// Received an 
 1822              		.loc 2 225 9 view .LVU364
 1823 005e 2246     		mov	r2, r4
 1824 0060 0D49     		ldr	r1, .L110+20
 1825 0062 01A8     		add	r0, sp, #4
ARM GAS  /var/folders/h5/t6jc6jh127n_294bflj9bdw40000gn/T//ccH8MPpK.s 			page 51


 1826 0064 FFF7FEFF 		bl	sprintf
 1827              	.LVL152:
 226:Src/main.c    **** 
 1828              		.loc 2 226 9 view .LVU365
 1829 0068 4FF6FF73 		movw	r3, #65535
 1830 006c 3222     		movs	r2, #50
 1831 006e 01A9     		add	r1, sp, #4
 1832 0070 0648     		ldr	r0, .L110+8
 1833 0072 FFF7FEFF 		bl	HAL_UART_Transmit
 1834              	.LVL153:
 1835 0076 DEE7     		b	.L105
 1836              	.L108:
 226:Src/main.c    **** 
 1837              		.loc 2 226 9 is_stmt 0 view .LVU366
 1838              	.LBE17:
 230:Src/main.c    ****   }
 1839              		.loc 2 230 5 is_stmt 1 view .LVU367
 1840 0078 0848     		ldr	r0, .L110+24
 1841 007a FFF7FEFF 		bl	puts
 1842              	.LVL154:
 231:Src/main.c    **** 
 1843              		.loc 2 231 3 is_stmt 0 view .LVU368
 1844 007e 15B0     		add	sp, sp, #84
 1845              	.LCFI48:
 1846              		.cfi_def_cfa_offset 12
 1847              		@ sp needed
 1848 0080 30BD     		pop	{r4, r5, pc}
 1849              	.LVL155:
 1850              	.L111:
 231:Src/main.c    **** 
 1851              		.loc 2 231 3 view .LVU369
 1852 0082 00BF     		.align	2
 1853              	.L110:
 1854 0084 00000000 		.word	.LC5
 1855 0088 28000000 		.word	.LC6
 1856 008c 00000000 		.word	.LANCHOR5
 1857 0090 00000000 		.word	.LANCHOR6
 1858 0094 14000000 		.word	.LC7
 1859 0098 1C000000 		.word	.LC8
 1860 009c 24000000 		.word	.LC9
 1861              		.cfi_endproc
 1862              	.LFE158:
 1864              		.section	.text.Error_Handler,"ax",%progbits
 1865              		.align	1
 1866              		.global	Error_Handler
 1867              		.syntax unified
 1868              		.thumb
 1869              		.thumb_func
 1870              		.fpu fpv4-sp-d16
 1872              	Error_Handler:
 1873              	.LFB165:
 566:Src/main.c    **** 
 567:Src/main.c    **** /* USER CODE BEGIN 4 */
 568:Src/main.c    **** 
 569:Src/main.c    **** /* USER CODE END 4 */
 570:Src/main.c    **** 
 571:Src/main.c    **** /**
ARM GAS  /var/folders/h5/t6jc6jh127n_294bflj9bdw40000gn/T//ccH8MPpK.s 			page 52


 572:Src/main.c    ****   * @brief  This function is executed in case of error occurrence.
 573:Src/main.c    ****   * @retval None
 574:Src/main.c    ****   */
 575:Src/main.c    **** void Error_Handler(void)
 576:Src/main.c    **** {
 1874              		.loc 2 576 1 is_stmt 1 view -0
 1875              		.cfi_startproc
 1876              		@ Volatile: function does not return.
 1877              		@ args = 0, pretend = 0, frame = 0
 1878              		@ frame_needed = 0, uses_anonymous_args = 0
 1879              		@ link register save eliminated.
 577:Src/main.c    ****   /* USER CODE BEGIN Error_Handler_Debug */
 578:Src/main.c    ****   /* User can add his own implementation to report the HAL error return state */
 579:Src/main.c    ****   __disable_irq();
 1880              		.loc 2 579 3 view .LVU371
 1881              	.LBB18:
 1882              	.LBI18:
 1883              		.file 3 "Drivers/CMSIS/Include/cmsis_gcc.h"
   1:Drivers/CMSIS/Include/cmsis_gcc.h **** /**************************************************************************//**
   2:Drivers/CMSIS/Include/cmsis_gcc.h ****  * @file     cmsis_gcc.h
   3:Drivers/CMSIS/Include/cmsis_gcc.h ****  * @brief    CMSIS compiler GCC header file
   4:Drivers/CMSIS/Include/cmsis_gcc.h ****  * @version  V5.0.4
   5:Drivers/CMSIS/Include/cmsis_gcc.h ****  * @date     09. April 2018
   6:Drivers/CMSIS/Include/cmsis_gcc.h ****  ******************************************************************************/
   7:Drivers/CMSIS/Include/cmsis_gcc.h **** /*
   8:Drivers/CMSIS/Include/cmsis_gcc.h ****  * Copyright (c) 2009-2018 Arm Limited. All rights reserved.
   9:Drivers/CMSIS/Include/cmsis_gcc.h ****  *
  10:Drivers/CMSIS/Include/cmsis_gcc.h ****  * SPDX-License-Identifier: Apache-2.0
  11:Drivers/CMSIS/Include/cmsis_gcc.h ****  *
  12:Drivers/CMSIS/Include/cmsis_gcc.h ****  * Licensed under the Apache License, Version 2.0 (the License); you may
  13:Drivers/CMSIS/Include/cmsis_gcc.h ****  * not use this file except in compliance with the License.
  14:Drivers/CMSIS/Include/cmsis_gcc.h ****  * You may obtain a copy of the License at
  15:Drivers/CMSIS/Include/cmsis_gcc.h ****  *
  16:Drivers/CMSIS/Include/cmsis_gcc.h ****  * www.apache.org/licenses/LICENSE-2.0
  17:Drivers/CMSIS/Include/cmsis_gcc.h ****  *
  18:Drivers/CMSIS/Include/cmsis_gcc.h ****  * Unless required by applicable law or agreed to in writing, software
  19:Drivers/CMSIS/Include/cmsis_gcc.h ****  * distributed under the License is distributed on an AS IS BASIS, WITHOUT
  20:Drivers/CMSIS/Include/cmsis_gcc.h ****  * WARRANTIES OR CONDITIONS OF ANY KIND, either express or implied.
  21:Drivers/CMSIS/Include/cmsis_gcc.h ****  * See the License for the specific language governing permissions and
  22:Drivers/CMSIS/Include/cmsis_gcc.h ****  * limitations under the License.
  23:Drivers/CMSIS/Include/cmsis_gcc.h ****  */
  24:Drivers/CMSIS/Include/cmsis_gcc.h **** 
  25:Drivers/CMSIS/Include/cmsis_gcc.h **** #ifndef __CMSIS_GCC_H
  26:Drivers/CMSIS/Include/cmsis_gcc.h **** #define __CMSIS_GCC_H
  27:Drivers/CMSIS/Include/cmsis_gcc.h **** 
  28:Drivers/CMSIS/Include/cmsis_gcc.h **** /* ignore some GCC warnings */
  29:Drivers/CMSIS/Include/cmsis_gcc.h **** #pragma GCC diagnostic push
  30:Drivers/CMSIS/Include/cmsis_gcc.h **** #pragma GCC diagnostic ignored "-Wsign-conversion"
  31:Drivers/CMSIS/Include/cmsis_gcc.h **** #pragma GCC diagnostic ignored "-Wconversion"
  32:Drivers/CMSIS/Include/cmsis_gcc.h **** #pragma GCC diagnostic ignored "-Wunused-parameter"
  33:Drivers/CMSIS/Include/cmsis_gcc.h **** 
  34:Drivers/CMSIS/Include/cmsis_gcc.h **** /* Fallback for __has_builtin */
  35:Drivers/CMSIS/Include/cmsis_gcc.h **** #ifndef __has_builtin
  36:Drivers/CMSIS/Include/cmsis_gcc.h ****   #define __has_builtin(x) (0)
  37:Drivers/CMSIS/Include/cmsis_gcc.h **** #endif
  38:Drivers/CMSIS/Include/cmsis_gcc.h **** 
  39:Drivers/CMSIS/Include/cmsis_gcc.h **** /* CMSIS compiler specific defines */
ARM GAS  /var/folders/h5/t6jc6jh127n_294bflj9bdw40000gn/T//ccH8MPpK.s 			page 53


  40:Drivers/CMSIS/Include/cmsis_gcc.h **** #ifndef   __ASM
  41:Drivers/CMSIS/Include/cmsis_gcc.h ****   #define __ASM                                  __asm
  42:Drivers/CMSIS/Include/cmsis_gcc.h **** #endif
  43:Drivers/CMSIS/Include/cmsis_gcc.h **** #ifndef   __INLINE
  44:Drivers/CMSIS/Include/cmsis_gcc.h ****   #define __INLINE                               inline
  45:Drivers/CMSIS/Include/cmsis_gcc.h **** #endif
  46:Drivers/CMSIS/Include/cmsis_gcc.h **** #ifndef   __STATIC_INLINE
  47:Drivers/CMSIS/Include/cmsis_gcc.h ****   #define __STATIC_INLINE                        static inline
  48:Drivers/CMSIS/Include/cmsis_gcc.h **** #endif
  49:Drivers/CMSIS/Include/cmsis_gcc.h **** #ifndef   __STATIC_FORCEINLINE                 
  50:Drivers/CMSIS/Include/cmsis_gcc.h ****   #define __STATIC_FORCEINLINE                   __attribute__((always_inline)) static inline
  51:Drivers/CMSIS/Include/cmsis_gcc.h **** #endif                                           
  52:Drivers/CMSIS/Include/cmsis_gcc.h **** #ifndef   __NO_RETURN
  53:Drivers/CMSIS/Include/cmsis_gcc.h ****   #define __NO_RETURN                            __attribute__((__noreturn__))
  54:Drivers/CMSIS/Include/cmsis_gcc.h **** #endif
  55:Drivers/CMSIS/Include/cmsis_gcc.h **** #ifndef   __USED
  56:Drivers/CMSIS/Include/cmsis_gcc.h ****   #define __USED                                 __attribute__((used))
  57:Drivers/CMSIS/Include/cmsis_gcc.h **** #endif
  58:Drivers/CMSIS/Include/cmsis_gcc.h **** #ifndef   __WEAK
  59:Drivers/CMSIS/Include/cmsis_gcc.h ****   #define __WEAK                                 __attribute__((weak))
  60:Drivers/CMSIS/Include/cmsis_gcc.h **** #endif
  61:Drivers/CMSIS/Include/cmsis_gcc.h **** #ifndef   __PACKED
  62:Drivers/CMSIS/Include/cmsis_gcc.h ****   #define __PACKED                               __attribute__((packed, aligned(1)))
  63:Drivers/CMSIS/Include/cmsis_gcc.h **** #endif
  64:Drivers/CMSIS/Include/cmsis_gcc.h **** #ifndef   __PACKED_STRUCT
  65:Drivers/CMSIS/Include/cmsis_gcc.h ****   #define __PACKED_STRUCT                        struct __attribute__((packed, aligned(1)))
  66:Drivers/CMSIS/Include/cmsis_gcc.h **** #endif
  67:Drivers/CMSIS/Include/cmsis_gcc.h **** #ifndef   __PACKED_UNION
  68:Drivers/CMSIS/Include/cmsis_gcc.h ****   #define __PACKED_UNION                         union __attribute__((packed, aligned(1)))
  69:Drivers/CMSIS/Include/cmsis_gcc.h **** #endif
  70:Drivers/CMSIS/Include/cmsis_gcc.h **** #ifndef   __UNALIGNED_UINT32        /* deprecated */
  71:Drivers/CMSIS/Include/cmsis_gcc.h ****   #pragma GCC diagnostic push
  72:Drivers/CMSIS/Include/cmsis_gcc.h ****   #pragma GCC diagnostic ignored "-Wpacked"
  73:Drivers/CMSIS/Include/cmsis_gcc.h ****   #pragma GCC diagnostic ignored "-Wattributes"
  74:Drivers/CMSIS/Include/cmsis_gcc.h ****   struct __attribute__((packed)) T_UINT32 { uint32_t v; };
  75:Drivers/CMSIS/Include/cmsis_gcc.h ****   #pragma GCC diagnostic pop
  76:Drivers/CMSIS/Include/cmsis_gcc.h ****   #define __UNALIGNED_UINT32(x)                  (((struct T_UINT32 *)(x))->v)
  77:Drivers/CMSIS/Include/cmsis_gcc.h **** #endif
  78:Drivers/CMSIS/Include/cmsis_gcc.h **** #ifndef   __UNALIGNED_UINT16_WRITE
  79:Drivers/CMSIS/Include/cmsis_gcc.h ****   #pragma GCC diagnostic push
  80:Drivers/CMSIS/Include/cmsis_gcc.h ****   #pragma GCC diagnostic ignored "-Wpacked"
  81:Drivers/CMSIS/Include/cmsis_gcc.h ****   #pragma GCC diagnostic ignored "-Wattributes"
  82:Drivers/CMSIS/Include/cmsis_gcc.h ****   __PACKED_STRUCT T_UINT16_WRITE { uint16_t v; };
  83:Drivers/CMSIS/Include/cmsis_gcc.h ****   #pragma GCC diagnostic pop
  84:Drivers/CMSIS/Include/cmsis_gcc.h ****   #define __UNALIGNED_UINT16_WRITE(addr, val)    (void)((((struct T_UINT16_WRITE *)(void *)(addr))-
  85:Drivers/CMSIS/Include/cmsis_gcc.h **** #endif
  86:Drivers/CMSIS/Include/cmsis_gcc.h **** #ifndef   __UNALIGNED_UINT16_READ
  87:Drivers/CMSIS/Include/cmsis_gcc.h ****   #pragma GCC diagnostic push
  88:Drivers/CMSIS/Include/cmsis_gcc.h ****   #pragma GCC diagnostic ignored "-Wpacked"
  89:Drivers/CMSIS/Include/cmsis_gcc.h ****   #pragma GCC diagnostic ignored "-Wattributes"
  90:Drivers/CMSIS/Include/cmsis_gcc.h ****   __PACKED_STRUCT T_UINT16_READ { uint16_t v; };
  91:Drivers/CMSIS/Include/cmsis_gcc.h ****   #pragma GCC diagnostic pop
  92:Drivers/CMSIS/Include/cmsis_gcc.h ****   #define __UNALIGNED_UINT16_READ(addr)          (((const struct T_UINT16_READ *)(const void *)(add
  93:Drivers/CMSIS/Include/cmsis_gcc.h **** #endif
  94:Drivers/CMSIS/Include/cmsis_gcc.h **** #ifndef   __UNALIGNED_UINT32_WRITE
  95:Drivers/CMSIS/Include/cmsis_gcc.h ****   #pragma GCC diagnostic push
  96:Drivers/CMSIS/Include/cmsis_gcc.h ****   #pragma GCC diagnostic ignored "-Wpacked"
ARM GAS  /var/folders/h5/t6jc6jh127n_294bflj9bdw40000gn/T//ccH8MPpK.s 			page 54


  97:Drivers/CMSIS/Include/cmsis_gcc.h ****   #pragma GCC diagnostic ignored "-Wattributes"
  98:Drivers/CMSIS/Include/cmsis_gcc.h ****   __PACKED_STRUCT T_UINT32_WRITE { uint32_t v; };
  99:Drivers/CMSIS/Include/cmsis_gcc.h ****   #pragma GCC diagnostic pop
 100:Drivers/CMSIS/Include/cmsis_gcc.h ****   #define __UNALIGNED_UINT32_WRITE(addr, val)    (void)((((struct T_UINT32_WRITE *)(void *)(addr))-
 101:Drivers/CMSIS/Include/cmsis_gcc.h **** #endif
 102:Drivers/CMSIS/Include/cmsis_gcc.h **** #ifndef   __UNALIGNED_UINT32_READ
 103:Drivers/CMSIS/Include/cmsis_gcc.h ****   #pragma GCC diagnostic push
 104:Drivers/CMSIS/Include/cmsis_gcc.h ****   #pragma GCC diagnostic ignored "-Wpacked"
 105:Drivers/CMSIS/Include/cmsis_gcc.h ****   #pragma GCC diagnostic ignored "-Wattributes"
 106:Drivers/CMSIS/Include/cmsis_gcc.h ****   __PACKED_STRUCT T_UINT32_READ { uint32_t v; };
 107:Drivers/CMSIS/Include/cmsis_gcc.h ****   #pragma GCC diagnostic pop
 108:Drivers/CMSIS/Include/cmsis_gcc.h ****   #define __UNALIGNED_UINT32_READ(addr)          (((const struct T_UINT32_READ *)(const void *)(add
 109:Drivers/CMSIS/Include/cmsis_gcc.h **** #endif
 110:Drivers/CMSIS/Include/cmsis_gcc.h **** #ifndef   __ALIGNED
 111:Drivers/CMSIS/Include/cmsis_gcc.h ****   #define __ALIGNED(x)                           __attribute__((aligned(x)))
 112:Drivers/CMSIS/Include/cmsis_gcc.h **** #endif
 113:Drivers/CMSIS/Include/cmsis_gcc.h **** #ifndef   __RESTRICT
 114:Drivers/CMSIS/Include/cmsis_gcc.h ****   #define __RESTRICT                             __restrict
 115:Drivers/CMSIS/Include/cmsis_gcc.h **** #endif
 116:Drivers/CMSIS/Include/cmsis_gcc.h **** 
 117:Drivers/CMSIS/Include/cmsis_gcc.h **** 
 118:Drivers/CMSIS/Include/cmsis_gcc.h **** /* ###########################  Core Function Access  ########################### */
 119:Drivers/CMSIS/Include/cmsis_gcc.h **** /** \ingroup  CMSIS_Core_FunctionInterface
 120:Drivers/CMSIS/Include/cmsis_gcc.h ****     \defgroup CMSIS_Core_RegAccFunctions CMSIS Core Register Access Functions
 121:Drivers/CMSIS/Include/cmsis_gcc.h ****   @{
 122:Drivers/CMSIS/Include/cmsis_gcc.h ****  */
 123:Drivers/CMSIS/Include/cmsis_gcc.h **** 
 124:Drivers/CMSIS/Include/cmsis_gcc.h **** /**
 125:Drivers/CMSIS/Include/cmsis_gcc.h ****   \brief   Enable IRQ Interrupts
 126:Drivers/CMSIS/Include/cmsis_gcc.h ****   \details Enables IRQ interrupts by clearing the I-bit in the CPSR.
 127:Drivers/CMSIS/Include/cmsis_gcc.h ****            Can only be executed in Privileged modes.
 128:Drivers/CMSIS/Include/cmsis_gcc.h ****  */
 129:Drivers/CMSIS/Include/cmsis_gcc.h **** __STATIC_FORCEINLINE void __enable_irq(void)
 130:Drivers/CMSIS/Include/cmsis_gcc.h **** {
 131:Drivers/CMSIS/Include/cmsis_gcc.h ****   __ASM volatile ("cpsie i" : : : "memory");
 132:Drivers/CMSIS/Include/cmsis_gcc.h **** }
 133:Drivers/CMSIS/Include/cmsis_gcc.h **** 
 134:Drivers/CMSIS/Include/cmsis_gcc.h **** 
 135:Drivers/CMSIS/Include/cmsis_gcc.h **** /**
 136:Drivers/CMSIS/Include/cmsis_gcc.h ****   \brief   Disable IRQ Interrupts
 137:Drivers/CMSIS/Include/cmsis_gcc.h ****   \details Disables IRQ interrupts by setting the I-bit in the CPSR.
 138:Drivers/CMSIS/Include/cmsis_gcc.h ****            Can only be executed in Privileged modes.
 139:Drivers/CMSIS/Include/cmsis_gcc.h ****  */
 140:Drivers/CMSIS/Include/cmsis_gcc.h **** __STATIC_FORCEINLINE void __disable_irq(void)
 1884              		.loc 3 140 27 view .LVU372
 1885              	.LBB19:
 141:Drivers/CMSIS/Include/cmsis_gcc.h **** {
 142:Drivers/CMSIS/Include/cmsis_gcc.h ****   __ASM volatile ("cpsid i" : : : "memory");
 1886              		.loc 3 142 3 view .LVU373
 1887              		.syntax unified
 1888              	@ 142 "Drivers/CMSIS/Include/cmsis_gcc.h" 1
 1889 0000 72B6     		cpsid i
 1890              	@ 0 "" 2
 1891              		.thumb
 1892              		.syntax unified
 1893              	.L113:
 1894              	.LBE19:
ARM GAS  /var/folders/h5/t6jc6jh127n_294bflj9bdw40000gn/T//ccH8MPpK.s 			page 55


 1895              	.LBE18:
 580:Src/main.c    ****   while (1)
 1896              		.loc 2 580 3 discriminator 1 view .LVU374
 581:Src/main.c    ****   {
 582:Src/main.c    ****   }
 1897              		.loc 2 582 3 discriminator 1 view .LVU375
 580:Src/main.c    ****   while (1)
 1898              		.loc 2 580 9 discriminator 1 view .LVU376
 1899 0002 FEE7     		b	.L113
 1900              		.cfi_endproc
 1901              	.LFE165:
 1903              		.section	.text.MX_I2C1_Init,"ax",%progbits
 1904              		.align	1
 1905              		.syntax unified
 1906              		.thumb
 1907              		.thumb_func
 1908              		.fpu fpv4-sp-d16
 1910              	MX_I2C1_Init:
 1911              	.LFB161:
 436:Src/main.c    **** 
 1912              		.loc 2 436 1 view -0
 1913              		.cfi_startproc
 1914              		@ args = 0, pretend = 0, frame = 0
 1915              		@ frame_needed = 0, uses_anonymous_args = 0
 1916 0000 08B5     		push	{r3, lr}
 1917              	.LCFI49:
 1918              		.cfi_def_cfa_offset 8
 1919              		.cfi_offset 3, -8
 1920              		.cfi_offset 14, -4
 445:Src/main.c    ****   hi2c1.Init.ClockSpeed = 100000;
 1921              		.loc 2 445 3 view .LVU378
 445:Src/main.c    ****   hi2c1.Init.ClockSpeed = 100000;
 1922              		.loc 2 445 18 is_stmt 0 view .LVU379
 1923 0002 0A48     		ldr	r0, .L118
 1924 0004 0A4B     		ldr	r3, .L118+4
 1925 0006 0360     		str	r3, [r0]
 446:Src/main.c    ****   hi2c1.Init.DutyCycle = I2C_DUTYCYCLE_2;
 1926              		.loc 2 446 3 is_stmt 1 view .LVU380
 446:Src/main.c    ****   hi2c1.Init.DutyCycle = I2C_DUTYCYCLE_2;
 1927              		.loc 2 446 25 is_stmt 0 view .LVU381
 1928 0008 0A4B     		ldr	r3, .L118+8
 1929 000a 4360     		str	r3, [r0, #4]
 447:Src/main.c    ****   hi2c1.Init.OwnAddress1 = 0;
 1930              		.loc 2 447 3 is_stmt 1 view .LVU382
 447:Src/main.c    ****   hi2c1.Init.OwnAddress1 = 0;
 1931              		.loc 2 447 24 is_stmt 0 view .LVU383
 1932 000c 0023     		movs	r3, #0
 1933 000e 8360     		str	r3, [r0, #8]
 448:Src/main.c    ****   hi2c1.Init.AddressingMode = I2C_ADDRESSINGMODE_7BIT;
 1934              		.loc 2 448 3 is_stmt 1 view .LVU384
 448:Src/main.c    ****   hi2c1.Init.AddressingMode = I2C_ADDRESSINGMODE_7BIT;
 1935              		.loc 2 448 26 is_stmt 0 view .LVU385
 1936 0010 C360     		str	r3, [r0, #12]
 449:Src/main.c    ****   hi2c1.Init.DualAddressMode = I2C_DUALADDRESS_DISABLE;
 1937              		.loc 2 449 3 is_stmt 1 view .LVU386
 449:Src/main.c    ****   hi2c1.Init.DualAddressMode = I2C_DUALADDRESS_DISABLE;
 1938              		.loc 2 449 29 is_stmt 0 view .LVU387
ARM GAS  /var/folders/h5/t6jc6jh127n_294bflj9bdw40000gn/T//ccH8MPpK.s 			page 56


 1939 0012 4FF48042 		mov	r2, #16384
 1940 0016 0261     		str	r2, [r0, #16]
 450:Src/main.c    ****   hi2c1.Init.OwnAddress2 = 0;
 1941              		.loc 2 450 3 is_stmt 1 view .LVU388
 450:Src/main.c    ****   hi2c1.Init.OwnAddress2 = 0;
 1942              		.loc 2 450 30 is_stmt 0 view .LVU389
 1943 0018 4361     		str	r3, [r0, #20]
 451:Src/main.c    ****   hi2c1.Init.GeneralCallMode = I2C_GENERALCALL_DISABLE;
 1944              		.loc 2 451 3 is_stmt 1 view .LVU390
 451:Src/main.c    ****   hi2c1.Init.GeneralCallMode = I2C_GENERALCALL_DISABLE;
 1945              		.loc 2 451 26 is_stmt 0 view .LVU391
 1946 001a 8361     		str	r3, [r0, #24]
 452:Src/main.c    ****   hi2c1.Init.NoStretchMode = I2C_NOSTRETCH_DISABLE;
 1947              		.loc 2 452 3 is_stmt 1 view .LVU392
 452:Src/main.c    ****   hi2c1.Init.NoStretchMode = I2C_NOSTRETCH_DISABLE;
 1948              		.loc 2 452 30 is_stmt 0 view .LVU393
 1949 001c C361     		str	r3, [r0, #28]
 453:Src/main.c    ****   if (HAL_I2C_Init(&hi2c1) != HAL_OK)
 1950              		.loc 2 453 3 is_stmt 1 view .LVU394
 453:Src/main.c    ****   if (HAL_I2C_Init(&hi2c1) != HAL_OK)
 1951              		.loc 2 453 28 is_stmt 0 view .LVU395
 1952 001e 0362     		str	r3, [r0, #32]
 454:Src/main.c    ****   {
 1953              		.loc 2 454 3 is_stmt 1 view .LVU396
 454:Src/main.c    ****   {
 1954              		.loc 2 454 7 is_stmt 0 view .LVU397
 1955 0020 FFF7FEFF 		bl	HAL_I2C_Init
 1956              	.LVL156:
 454:Src/main.c    ****   {
 1957              		.loc 2 454 6 view .LVU398
 1958 0024 00B9     		cbnz	r0, .L117
 462:Src/main.c    **** 
 1959              		.loc 2 462 1 view .LVU399
 1960 0026 08BD     		pop	{r3, pc}
 1961              	.L117:
 456:Src/main.c    ****   }
 1962              		.loc 2 456 5 is_stmt 1 view .LVU400
 1963 0028 FFF7FEFF 		bl	Error_Handler
 1964              	.LVL157:
 1965              	.L119:
 1966              		.align	2
 1967              	.L118:
 1968 002c 00000000 		.word	.LANCHOR6
 1969 0030 00540040 		.word	1073763328
 1970 0034 A0860100 		.word	100000
 1971              		.cfi_endproc
 1972              	.LFE161:
 1974              		.section	.text.MX_USART2_UART_Init,"ax",%progbits
 1975              		.align	1
 1976              		.syntax unified
 1977              		.thumb
 1978              		.thumb_func
 1979              		.fpu fpv4-sp-d16
 1981              	MX_USART2_UART_Init:
 1982              	.LFB163:
 508:Src/main.c    **** 
 1983              		.loc 2 508 1 view -0
ARM GAS  /var/folders/h5/t6jc6jh127n_294bflj9bdw40000gn/T//ccH8MPpK.s 			page 57


 1984              		.cfi_startproc
 1985              		@ args = 0, pretend = 0, frame = 0
 1986              		@ frame_needed = 0, uses_anonymous_args = 0
 1987 0000 08B5     		push	{r3, lr}
 1988              	.LCFI50:
 1989              		.cfi_def_cfa_offset 8
 1990              		.cfi_offset 3, -8
 1991              		.cfi_offset 14, -4
 517:Src/main.c    ****   huart2.Init.BaudRate = 115200;
 1992              		.loc 2 517 3 view .LVU402
 517:Src/main.c    ****   huart2.Init.BaudRate = 115200;
 1993              		.loc 2 517 19 is_stmt 0 view .LVU403
 1994 0002 0A48     		ldr	r0, .L124
 1995 0004 0A4B     		ldr	r3, .L124+4
 1996 0006 0360     		str	r3, [r0]
 518:Src/main.c    ****   huart2.Init.WordLength = UART_WORDLENGTH_8B;
 1997              		.loc 2 518 3 is_stmt 1 view .LVU404
 518:Src/main.c    ****   huart2.Init.WordLength = UART_WORDLENGTH_8B;
 1998              		.loc 2 518 24 is_stmt 0 view .LVU405
 1999 0008 4FF4E133 		mov	r3, #115200
 2000 000c 4360     		str	r3, [r0, #4]
 519:Src/main.c    ****   huart2.Init.StopBits = UART_STOPBITS_1;
 2001              		.loc 2 519 3 is_stmt 1 view .LVU406
 519:Src/main.c    ****   huart2.Init.StopBits = UART_STOPBITS_1;
 2002              		.loc 2 519 26 is_stmt 0 view .LVU407
 2003 000e 0023     		movs	r3, #0
 2004 0010 8360     		str	r3, [r0, #8]
 520:Src/main.c    ****   huart2.Init.Parity = UART_PARITY_NONE;
 2005              		.loc 2 520 3 is_stmt 1 view .LVU408
 520:Src/main.c    ****   huart2.Init.Parity = UART_PARITY_NONE;
 2006              		.loc 2 520 24 is_stmt 0 view .LVU409
 2007 0012 C360     		str	r3, [r0, #12]
 521:Src/main.c    ****   huart2.Init.Mode = UART_MODE_TX_RX;
 2008              		.loc 2 521 3 is_stmt 1 view .LVU410
 521:Src/main.c    ****   huart2.Init.Mode = UART_MODE_TX_RX;
 2009              		.loc 2 521 22 is_stmt 0 view .LVU411
 2010 0014 0361     		str	r3, [r0, #16]
 522:Src/main.c    ****   huart2.Init.HwFlowCtl = UART_HWCONTROL_NONE;
 2011              		.loc 2 522 3 is_stmt 1 view .LVU412
 522:Src/main.c    ****   huart2.Init.HwFlowCtl = UART_HWCONTROL_NONE;
 2012              		.loc 2 522 20 is_stmt 0 view .LVU413
 2013 0016 0C22     		movs	r2, #12
 2014 0018 4261     		str	r2, [r0, #20]
 523:Src/main.c    ****   huart2.Init.OverSampling = UART_OVERSAMPLING_16;
 2015              		.loc 2 523 3 is_stmt 1 view .LVU414
 523:Src/main.c    ****   huart2.Init.OverSampling = UART_OVERSAMPLING_16;
 2016              		.loc 2 523 25 is_stmt 0 view .LVU415
 2017 001a 8361     		str	r3, [r0, #24]
 524:Src/main.c    ****   if (HAL_UART_Init(&huart2) != HAL_OK)
 2018              		.loc 2 524 3 is_stmt 1 view .LVU416
 524:Src/main.c    ****   if (HAL_UART_Init(&huart2) != HAL_OK)
 2019              		.loc 2 524 28 is_stmt 0 view .LVU417
 2020 001c C361     		str	r3, [r0, #28]
 525:Src/main.c    ****   {
 2021              		.loc 2 525 3 is_stmt 1 view .LVU418
 525:Src/main.c    ****   {
 2022              		.loc 2 525 7 is_stmt 0 view .LVU419
ARM GAS  /var/folders/h5/t6jc6jh127n_294bflj9bdw40000gn/T//ccH8MPpK.s 			page 58


 2023 001e FFF7FEFF 		bl	HAL_UART_Init
 2024              	.LVL158:
 525:Src/main.c    ****   {
 2025              		.loc 2 525 6 view .LVU420
 2026 0022 00B9     		cbnz	r0, .L123
 533:Src/main.c    **** 
 2027              		.loc 2 533 1 view .LVU421
 2028 0024 08BD     		pop	{r3, pc}
 2029              	.L123:
 527:Src/main.c    ****   }
 2030              		.loc 2 527 5 is_stmt 1 view .LVU422
 2031 0026 FFF7FEFF 		bl	Error_Handler
 2032              	.LVL159:
 2033              	.L125:
 2034 002a 00BF     		.align	2
 2035              	.L124:
 2036 002c 00000000 		.word	.LANCHOR5
 2037 0030 00440040 		.word	1073759232
 2038              		.cfi_endproc
 2039              	.LFE163:
 2041              		.section	.text.MX_SPI1_Init,"ax",%progbits
 2042              		.align	1
 2043              		.syntax unified
 2044              		.thumb
 2045              		.thumb_func
 2046              		.fpu fpv4-sp-d16
 2048              	MX_SPI1_Init:
 2049              	.LFB162:
 470:Src/main.c    **** 
 2050              		.loc 2 470 1 view -0
 2051              		.cfi_startproc
 2052              		@ args = 0, pretend = 0, frame = 0
 2053              		@ frame_needed = 0, uses_anonymous_args = 0
 2054 0000 08B5     		push	{r3, lr}
 2055              	.LCFI51:
 2056              		.cfi_def_cfa_offset 8
 2057              		.cfi_offset 3, -8
 2058              		.cfi_offset 14, -4
 480:Src/main.c    ****   hspi1.Init.Mode = SPI_MODE_MASTER;
 2059              		.loc 2 480 3 view .LVU424
 480:Src/main.c    ****   hspi1.Init.Mode = SPI_MODE_MASTER;
 2060              		.loc 2 480 18 is_stmt 0 view .LVU425
 2061 0002 0E48     		ldr	r0, .L130
 2062 0004 0E4B     		ldr	r3, .L130+4
 2063 0006 0360     		str	r3, [r0]
 481:Src/main.c    ****   hspi1.Init.Direction = SPI_DIRECTION_2LINES;
 2064              		.loc 2 481 3 is_stmt 1 view .LVU426
 481:Src/main.c    ****   hspi1.Init.Direction = SPI_DIRECTION_2LINES;
 2065              		.loc 2 481 19 is_stmt 0 view .LVU427
 2066 0008 4FF48273 		mov	r3, #260
 2067 000c 4360     		str	r3, [r0, #4]
 482:Src/main.c    ****   hspi1.Init.DataSize = SPI_DATASIZE_8BIT;
 2068              		.loc 2 482 3 is_stmt 1 view .LVU428
 482:Src/main.c    ****   hspi1.Init.DataSize = SPI_DATASIZE_8BIT;
 2069              		.loc 2 482 24 is_stmt 0 view .LVU429
 2070 000e 0023     		movs	r3, #0
 2071 0010 8360     		str	r3, [r0, #8]
ARM GAS  /var/folders/h5/t6jc6jh127n_294bflj9bdw40000gn/T//ccH8MPpK.s 			page 59


 483:Src/main.c    ****   hspi1.Init.CLKPolarity = SPI_POLARITY_HIGH;
 2072              		.loc 2 483 3 is_stmt 1 view .LVU430
 483:Src/main.c    ****   hspi1.Init.CLKPolarity = SPI_POLARITY_HIGH;
 2073              		.loc 2 483 23 is_stmt 0 view .LVU431
 2074 0012 C360     		str	r3, [r0, #12]
 484:Src/main.c    ****   hspi1.Init.CLKPhase = SPI_PHASE_2EDGE;
 2075              		.loc 2 484 3 is_stmt 1 view .LVU432
 484:Src/main.c    ****   hspi1.Init.CLKPhase = SPI_PHASE_2EDGE;
 2076              		.loc 2 484 26 is_stmt 0 view .LVU433
 2077 0014 0222     		movs	r2, #2
 2078 0016 0261     		str	r2, [r0, #16]
 485:Src/main.c    ****   hspi1.Init.NSS = SPI_NSS_SOFT;
 2079              		.loc 2 485 3 is_stmt 1 view .LVU434
 485:Src/main.c    ****   hspi1.Init.NSS = SPI_NSS_SOFT;
 2080              		.loc 2 485 23 is_stmt 0 view .LVU435
 2081 0018 0122     		movs	r2, #1
 2082 001a 4261     		str	r2, [r0, #20]
 486:Src/main.c    ****   hspi1.Init.BaudRatePrescaler = SPI_BAUDRATEPRESCALER_64;
 2083              		.loc 2 486 3 is_stmt 1 view .LVU436
 486:Src/main.c    ****   hspi1.Init.BaudRatePrescaler = SPI_BAUDRATEPRESCALER_64;
 2084              		.loc 2 486 18 is_stmt 0 view .LVU437
 2085 001c 4FF40072 		mov	r2, #512
 2086 0020 8261     		str	r2, [r0, #24]
 487:Src/main.c    ****   hspi1.Init.FirstBit = SPI_FIRSTBIT_MSB;
 2087              		.loc 2 487 3 is_stmt 1 view .LVU438
 487:Src/main.c    ****   hspi1.Init.FirstBit = SPI_FIRSTBIT_MSB;
 2088              		.loc 2 487 32 is_stmt 0 view .LVU439
 2089 0022 2822     		movs	r2, #40
 2090 0024 C261     		str	r2, [r0, #28]
 488:Src/main.c    ****   hspi1.Init.TIMode = SPI_TIMODE_DISABLE;
 2091              		.loc 2 488 3 is_stmt 1 view .LVU440
 488:Src/main.c    ****   hspi1.Init.TIMode = SPI_TIMODE_DISABLE;
 2092              		.loc 2 488 23 is_stmt 0 view .LVU441
 2093 0026 0362     		str	r3, [r0, #32]
 489:Src/main.c    ****   hspi1.Init.CRCCalculation = SPI_CRCCALCULATION_DISABLE;
 2094              		.loc 2 489 3 is_stmt 1 view .LVU442
 489:Src/main.c    ****   hspi1.Init.CRCCalculation = SPI_CRCCALCULATION_DISABLE;
 2095              		.loc 2 489 21 is_stmt 0 view .LVU443
 2096 0028 4362     		str	r3, [r0, #36]
 490:Src/main.c    ****   hspi1.Init.CRCPolynomial = 10;
 2097              		.loc 2 490 3 is_stmt 1 view .LVU444
 490:Src/main.c    ****   hspi1.Init.CRCPolynomial = 10;
 2098              		.loc 2 490 29 is_stmt 0 view .LVU445
 2099 002a 8362     		str	r3, [r0, #40]
 491:Src/main.c    ****   if (HAL_SPI_Init(&hspi1) != HAL_OK)
 2100              		.loc 2 491 3 is_stmt 1 view .LVU446
 491:Src/main.c    ****   if (HAL_SPI_Init(&hspi1) != HAL_OK)
 2101              		.loc 2 491 28 is_stmt 0 view .LVU447
 2102 002c 0A23     		movs	r3, #10
 2103 002e C362     		str	r3, [r0, #44]
 492:Src/main.c    ****   {
 2104              		.loc 2 492 3 is_stmt 1 view .LVU448
 492:Src/main.c    ****   {
 2105              		.loc 2 492 7 is_stmt 0 view .LVU449
 2106 0030 FFF7FEFF 		bl	HAL_SPI_Init
 2107              	.LVL160:
 492:Src/main.c    ****   {
ARM GAS  /var/folders/h5/t6jc6jh127n_294bflj9bdw40000gn/T//ccH8MPpK.s 			page 60


 2108              		.loc 2 492 6 view .LVU450
 2109 0034 00B9     		cbnz	r0, .L129
 500:Src/main.c    **** 
 2110              		.loc 2 500 1 view .LVU451
 2111 0036 08BD     		pop	{r3, pc}
 2112              	.L129:
 494:Src/main.c    ****   }
 2113              		.loc 2 494 5 is_stmt 1 view .LVU452
 2114 0038 FFF7FEFF 		bl	Error_Handler
 2115              	.LVL161:
 2116              	.L131:
 2117              		.align	2
 2118              	.L130:
 2119 003c 00000000 		.word	.LANCHOR2
 2120 0040 00300140 		.word	1073819648
 2121              		.cfi_endproc
 2122              	.LFE162:
 2124              		.section	.text.SystemClock_Config,"ax",%progbits
 2125              		.align	1
 2126              		.global	SystemClock_Config
 2127              		.syntax unified
 2128              		.thumb
 2129              		.thumb_func
 2130              		.fpu fpv4-sp-d16
 2132              	SystemClock_Config:
 2133              	.LFB160:
 390:Src/main.c    ****   RCC_OscInitTypeDef RCC_OscInitStruct = {0};
 2134              		.loc 2 390 1 view -0
 2135              		.cfi_startproc
 2136              		@ args = 0, pretend = 0, frame = 80
 2137              		@ frame_needed = 0, uses_anonymous_args = 0
 2138 0000 00B5     		push	{lr}
 2139              	.LCFI52:
 2140              		.cfi_def_cfa_offset 4
 2141              		.cfi_offset 14, -4
 2142 0002 95B0     		sub	sp, sp, #84
 2143              	.LCFI53:
 2144              		.cfi_def_cfa_offset 88
 391:Src/main.c    ****   RCC_ClkInitTypeDef RCC_ClkInitStruct = {0};
 2145              		.loc 2 391 3 view .LVU454
 391:Src/main.c    ****   RCC_ClkInitTypeDef RCC_ClkInitStruct = {0};
 2146              		.loc 2 391 22 is_stmt 0 view .LVU455
 2147 0004 3022     		movs	r2, #48
 2148 0006 0021     		movs	r1, #0
 2149 0008 08A8     		add	r0, sp, #32
 2150 000a FFF7FEFF 		bl	memset
 2151              	.LVL162:
 392:Src/main.c    **** 
 2152              		.loc 2 392 3 is_stmt 1 view .LVU456
 392:Src/main.c    **** 
 2153              		.loc 2 392 22 is_stmt 0 view .LVU457
 2154 000e 0023     		movs	r3, #0
 2155 0010 0393     		str	r3, [sp, #12]
 2156 0012 0493     		str	r3, [sp, #16]
 2157 0014 0593     		str	r3, [sp, #20]
 2158 0016 0693     		str	r3, [sp, #24]
 2159 0018 0793     		str	r3, [sp, #28]
ARM GAS  /var/folders/h5/t6jc6jh127n_294bflj9bdw40000gn/T//ccH8MPpK.s 			page 61


 396:Src/main.c    ****   __HAL_PWR_VOLTAGESCALING_CONFIG(PWR_REGULATOR_VOLTAGE_SCALE1);
 2160              		.loc 2 396 3 is_stmt 1 view .LVU458
 2161              	.LBB20:
 396:Src/main.c    ****   __HAL_PWR_VOLTAGESCALING_CONFIG(PWR_REGULATOR_VOLTAGE_SCALE1);
 2162              		.loc 2 396 3 view .LVU459
 2163 001a 0193     		str	r3, [sp, #4]
 396:Src/main.c    ****   __HAL_PWR_VOLTAGESCALING_CONFIG(PWR_REGULATOR_VOLTAGE_SCALE1);
 2164              		.loc 2 396 3 view .LVU460
 2165 001c 1E4A     		ldr	r2, .L138
 2166 001e 116C     		ldr	r1, [r2, #64]
 2167 0020 41F08051 		orr	r1, r1, #268435456
 2168 0024 1164     		str	r1, [r2, #64]
 396:Src/main.c    ****   __HAL_PWR_VOLTAGESCALING_CONFIG(PWR_REGULATOR_VOLTAGE_SCALE1);
 2169              		.loc 2 396 3 view .LVU461
 2170 0026 126C     		ldr	r2, [r2, #64]
 2171 0028 02F08052 		and	r2, r2, #268435456
 2172 002c 0192     		str	r2, [sp, #4]
 396:Src/main.c    ****   __HAL_PWR_VOLTAGESCALING_CONFIG(PWR_REGULATOR_VOLTAGE_SCALE1);
 2173              		.loc 2 396 3 view .LVU462
 2174 002e 019A     		ldr	r2, [sp, #4]
 2175              	.LBE20:
 396:Src/main.c    ****   __HAL_PWR_VOLTAGESCALING_CONFIG(PWR_REGULATOR_VOLTAGE_SCALE1);
 2176              		.loc 2 396 3 view .LVU463
 397:Src/main.c    ****   /** Initializes the RCC Oscillators according to the specified parameters
 2177              		.loc 2 397 3 view .LVU464
 2178              	.LBB21:
 397:Src/main.c    ****   /** Initializes the RCC Oscillators according to the specified parameters
 2179              		.loc 2 397 3 view .LVU465
 2180 0030 0293     		str	r3, [sp, #8]
 397:Src/main.c    ****   /** Initializes the RCC Oscillators according to the specified parameters
 2181              		.loc 2 397 3 view .LVU466
 2182 0032 1A4A     		ldr	r2, .L138+4
 2183 0034 1168     		ldr	r1, [r2]
 2184 0036 41F44041 		orr	r1, r1, #49152
 2185 003a 1160     		str	r1, [r2]
 397:Src/main.c    ****   /** Initializes the RCC Oscillators according to the specified parameters
 2186              		.loc 2 397 3 view .LVU467
 2187 003c 1268     		ldr	r2, [r2]
 2188 003e 02F44042 		and	r2, r2, #49152
 2189 0042 0292     		str	r2, [sp, #8]
 397:Src/main.c    ****   /** Initializes the RCC Oscillators according to the specified parameters
 2190              		.loc 2 397 3 view .LVU468
 2191 0044 029A     		ldr	r2, [sp, #8]
 2192              	.LBE21:
 397:Src/main.c    ****   /** Initializes the RCC Oscillators according to the specified parameters
 2193              		.loc 2 397 3 view .LVU469
 401:Src/main.c    ****   RCC_OscInitStruct.HSIState = RCC_HSI_ON;
 2194              		.loc 2 401 3 view .LVU470
 401:Src/main.c    ****   RCC_OscInitStruct.HSIState = RCC_HSI_ON;
 2195              		.loc 2 401 36 is_stmt 0 view .LVU471
 2196 0046 0222     		movs	r2, #2
 2197 0048 0892     		str	r2, [sp, #32]
 402:Src/main.c    ****   RCC_OscInitStruct.HSICalibrationValue = RCC_HSICALIBRATION_DEFAULT;
 2198              		.loc 2 402 3 is_stmt 1 view .LVU472
 402:Src/main.c    ****   RCC_OscInitStruct.HSICalibrationValue = RCC_HSICALIBRATION_DEFAULT;
 2199              		.loc 2 402 30 is_stmt 0 view .LVU473
 2200 004a 0121     		movs	r1, #1
ARM GAS  /var/folders/h5/t6jc6jh127n_294bflj9bdw40000gn/T//ccH8MPpK.s 			page 62


 2201 004c 0B91     		str	r1, [sp, #44]
 403:Src/main.c    ****   RCC_OscInitStruct.PLL.PLLState = RCC_PLL_ON;
 2202              		.loc 2 403 3 is_stmt 1 view .LVU474
 403:Src/main.c    ****   RCC_OscInitStruct.PLL.PLLState = RCC_PLL_ON;
 2203              		.loc 2 403 41 is_stmt 0 view .LVU475
 2204 004e 1021     		movs	r1, #16
 2205 0050 0C91     		str	r1, [sp, #48]
 404:Src/main.c    ****   RCC_OscInitStruct.PLL.PLLSource = RCC_PLLSOURCE_HSI;
 2206              		.loc 2 404 3 is_stmt 1 view .LVU476
 404:Src/main.c    ****   RCC_OscInitStruct.PLL.PLLSource = RCC_PLLSOURCE_HSI;
 2207              		.loc 2 404 34 is_stmt 0 view .LVU477
 2208 0052 0E92     		str	r2, [sp, #56]
 405:Src/main.c    ****   RCC_OscInitStruct.PLL.PLLM = 8;
 2209              		.loc 2 405 3 is_stmt 1 view .LVU478
 405:Src/main.c    ****   RCC_OscInitStruct.PLL.PLLM = 8;
 2210              		.loc 2 405 35 is_stmt 0 view .LVU479
 2211 0054 0F93     		str	r3, [sp, #60]
 406:Src/main.c    ****   RCC_OscInitStruct.PLL.PLLN = 90;
 2212              		.loc 2 406 3 is_stmt 1 view .LVU480
 406:Src/main.c    ****   RCC_OscInitStruct.PLL.PLLN = 90;
 2213              		.loc 2 406 30 is_stmt 0 view .LVU481
 2214 0056 0823     		movs	r3, #8
 2215 0058 1093     		str	r3, [sp, #64]
 407:Src/main.c    ****   RCC_OscInitStruct.PLL.PLLP = RCC_PLLP_DIV2;
 2216              		.loc 2 407 3 is_stmt 1 view .LVU482
 407:Src/main.c    ****   RCC_OscInitStruct.PLL.PLLP = RCC_PLLP_DIV2;
 2217              		.loc 2 407 30 is_stmt 0 view .LVU483
 2218 005a 5A23     		movs	r3, #90
 2219 005c 1193     		str	r3, [sp, #68]
 408:Src/main.c    ****   RCC_OscInitStruct.PLL.PLLQ = 4;
 2220              		.loc 2 408 3 is_stmt 1 view .LVU484
 408:Src/main.c    ****   RCC_OscInitStruct.PLL.PLLQ = 4;
 2221              		.loc 2 408 30 is_stmt 0 view .LVU485
 2222 005e 1292     		str	r2, [sp, #72]
 409:Src/main.c    **** 
 2223              		.loc 2 409 3 is_stmt 1 view .LVU486
 409:Src/main.c    **** 
 2224              		.loc 2 409 30 is_stmt 0 view .LVU487
 2225 0060 0423     		movs	r3, #4
 2226 0062 1393     		str	r3, [sp, #76]
 411:Src/main.c    ****   {
 2227              		.loc 2 411 3 is_stmt 1 view .LVU488
 411:Src/main.c    ****   {
 2228              		.loc 2 411 7 is_stmt 0 view .LVU489
 2229 0064 08A8     		add	r0, sp, #32
 2230 0066 FFF7FEFF 		bl	HAL_RCC_OscConfig
 2231              	.LVL163:
 411:Src/main.c    ****   {
 2232              		.loc 2 411 6 view .LVU490
 2233 006a 80B9     		cbnz	r0, .L136
 417:Src/main.c    ****                               |RCC_CLOCKTYPE_PCLK1|RCC_CLOCKTYPE_PCLK2;
 2234              		.loc 2 417 3 is_stmt 1 view .LVU491
 417:Src/main.c    ****                               |RCC_CLOCKTYPE_PCLK1|RCC_CLOCKTYPE_PCLK2;
 2235              		.loc 2 417 31 is_stmt 0 view .LVU492
 2236 006c 0F23     		movs	r3, #15
 2237 006e 0393     		str	r3, [sp, #12]
 419:Src/main.c    ****   RCC_ClkInitStruct.AHBCLKDivider = RCC_SYSCLK_DIV1;
ARM GAS  /var/folders/h5/t6jc6jh127n_294bflj9bdw40000gn/T//ccH8MPpK.s 			page 63


 2238              		.loc 2 419 3 is_stmt 1 view .LVU493
 419:Src/main.c    ****   RCC_ClkInitStruct.AHBCLKDivider = RCC_SYSCLK_DIV1;
 2239              		.loc 2 419 34 is_stmt 0 view .LVU494
 2240 0070 0221     		movs	r1, #2
 2241 0072 0491     		str	r1, [sp, #16]
 420:Src/main.c    ****   RCC_ClkInitStruct.APB1CLKDivider = RCC_HCLK_DIV2;
 2242              		.loc 2 420 3 is_stmt 1 view .LVU495
 420:Src/main.c    ****   RCC_ClkInitStruct.APB1CLKDivider = RCC_HCLK_DIV2;
 2243              		.loc 2 420 35 is_stmt 0 view .LVU496
 2244 0074 0023     		movs	r3, #0
 2245 0076 0593     		str	r3, [sp, #20]
 421:Src/main.c    ****   RCC_ClkInitStruct.APB2CLKDivider = RCC_HCLK_DIV1;
 2246              		.loc 2 421 3 is_stmt 1 view .LVU497
 421:Src/main.c    ****   RCC_ClkInitStruct.APB2CLKDivider = RCC_HCLK_DIV1;
 2247              		.loc 2 421 36 is_stmt 0 view .LVU498
 2248 0078 4FF48052 		mov	r2, #4096
 2249 007c 0692     		str	r2, [sp, #24]
 422:Src/main.c    **** 
 2250              		.loc 2 422 3 is_stmt 1 view .LVU499
 422:Src/main.c    **** 
 2251              		.loc 2 422 36 is_stmt 0 view .LVU500
 2252 007e 0793     		str	r3, [sp, #28]
 424:Src/main.c    ****   {
 2253              		.loc 2 424 3 is_stmt 1 view .LVU501
 424:Src/main.c    ****   {
 2254              		.loc 2 424 7 is_stmt 0 view .LVU502
 2255 0080 03A8     		add	r0, sp, #12
 2256 0082 FFF7FEFF 		bl	HAL_RCC_ClockConfig
 2257              	.LVL164:
 424:Src/main.c    ****   {
 2258              		.loc 2 424 6 view .LVU503
 2259 0086 20B9     		cbnz	r0, .L137
 428:Src/main.c    **** 
 2260              		.loc 2 428 1 view .LVU504
 2261 0088 15B0     		add	sp, sp, #84
 2262              	.LCFI54:
 2263              		.cfi_remember_state
 2264              		.cfi_def_cfa_offset 4
 2265              		@ sp needed
 2266 008a 5DF804FB 		ldr	pc, [sp], #4
 2267              	.L136:
 2268              	.LCFI55:
 2269              		.cfi_restore_state
 413:Src/main.c    ****   }
 2270              		.loc 2 413 5 is_stmt 1 view .LVU505
 2271 008e FFF7FEFF 		bl	Error_Handler
 2272              	.LVL165:
 2273              	.L137:
 426:Src/main.c    ****   }
 2274              		.loc 2 426 5 view .LVU506
 2275 0092 FFF7FEFF 		bl	Error_Handler
 2276              	.LVL166:
 2277              	.L139:
 2278 0096 00BF     		.align	2
 2279              	.L138:
 2280 0098 00380240 		.word	1073887232
 2281 009c 00700040 		.word	1073770496
ARM GAS  /var/folders/h5/t6jc6jh127n_294bflj9bdw40000gn/T//ccH8MPpK.s 			page 64


 2282              		.cfi_endproc
 2283              	.LFE160:
 2285              		.section	.rodata.main.str1.4,"aMS",%progbits,1
 2286              		.align	2
 2287              	.LC11:
 2288 0000 68656C6C 		.ascii	"hello world\000"
 2288      6F20776F 
 2288      726C6400 
 2289              		.align	2
 2290              	.LC12:
 2291 000c 436F6E6E 		.ascii	"Connected to UART Two\015\012\000"
 2291      65637465 
 2291      6420746F 
 2291      20554152 
 2291      54205477 
 2292              		.align	2
 2293              	.LC10:
 2294 0024 49324320 		.ascii	"I2C initialized\015\012\000"
 2294      696E6974 
 2294      69616C69 
 2294      7A65640D 
 2294      0A00
 2295              		.section	.text.main,"ax",%progbits
 2296              		.align	1
 2297              		.global	main
 2298              		.syntax unified
 2299              		.thumb
 2300              		.thumb_func
 2301              		.fpu fpv4-sp-d16
 2303              	main:
 2304              	.LFB159:
 240:Src/main.c    ****   /* USER CODE BEGIN 1 */
 2305              		.loc 2 240 1 view -0
 2306              		.cfi_startproc
 2307              		@ args = 0, pretend = 0, frame = 80
 2308              		@ frame_needed = 0, uses_anonymous_args = 0
 2309 0000 70B5     		push	{r4, r5, r6, lr}
 2310              	.LCFI56:
 2311              		.cfi_def_cfa_offset 16
 2312              		.cfi_offset 4, -16
 2313              		.cfi_offset 5, -12
 2314              		.cfi_offset 6, -8
 2315              		.cfi_offset 14, -4
 2316 0002 96B0     		sub	sp, sp, #88
 2317              	.LCFI57:
 2318              		.cfi_def_cfa_offset 104
 248:Src/main.c    **** 
 2319              		.loc 2 248 3 view .LVU508
 2320 0004 FFF7FEFF 		bl	HAL_Init
 2321              	.LVL167:
 255:Src/main.c    **** 
 2322              		.loc 2 255 3 view .LVU509
 2323 0008 FFF7FEFF 		bl	SystemClock_Config
 2324              	.LVL168:
 262:Src/main.c    ****   MX_I2C1_Init();
 2325              		.loc 2 262 3 view .LVU510
 2326 000c FFF7FEFF 		bl	MX_GPIO_Init
ARM GAS  /var/folders/h5/t6jc6jh127n_294bflj9bdw40000gn/T//ccH8MPpK.s 			page 65


 2327              	.LVL169:
 263:Src/main.c    ****   MX_USART2_UART_Init();
 2328              		.loc 2 263 3 view .LVU511
 2329 0010 FFF7FEFF 		bl	MX_I2C1_Init
 2330              	.LVL170:
 264:Src/main.c    ****   MX_SPI1_Init();
 2331              		.loc 2 264 3 view .LVU512
 2332 0014 FFF7FEFF 		bl	MX_USART2_UART_Init
 2333              	.LVL171:
 265:Src/main.c    **** 
 2334              		.loc 2 265 3 view .LVU513
 2335 0018 FFF7FEFF 		bl	MX_SPI1_Init
 2336              	.LVL172:
 270:Src/main.c    ****   ADXL345powerOn(&adxl);                              // Power on the ADXL345
 2337              		.loc 2 270 3 view .LVU514
 2338 001c 5A4C     		ldr	r4, .L148
 2339 001e 4023     		movs	r3, #64
 2340 0020 5A4A     		ldr	r2, .L148+4
 2341 0022 5B49     		ldr	r1, .L148+8
 2342 0024 2046     		mov	r0, r4
 2343 0026 FFF7FEFF 		bl	ADXL345_SPI
 2344              	.LVL173:
 271:Src/main.c    **** 	
 2345              		.loc 2 271 3 view .LVU515
 2346 002a 2046     		mov	r0, r4
 2347 002c FFF7FEFF 		bl	ADXL345powerOn
 2348              	.LVL174:
 273:Src/main.c    **** 	                                              // Accepted values are 2g, 4g, 8g or 16g
 2349              		.loc 2 273 3 view .LVU516
 2350 0030 1021     		movs	r1, #16
 2351 0032 2046     		mov	r0, r4
 2352 0034 FFF7FEFF 		bl	ADXL345setRangeSetting
 2353              	.LVL175:
 278:Src/main.c    **** 	                                              // Default: Set to 1
 2354              		.loc 2 278 3 view .LVU517
 2355 0038 0021     		movs	r1, #0
 2356 003a 2046     		mov	r0, r4
 2357 003c FFF7FEFF 		bl	ADXL345setSpiBit
 2358              	.LVL176:
 282:Src/main.c    ****   ADXL345setActivityThreshold(&adxl, 75);             // 62.5mg per increment   // Set activity   /
 2359              		.loc 2 282 3 view .LVU518
 2360 0040 0023     		movs	r3, #0
 2361 0042 1A46     		mov	r2, r3
 2362 0044 0121     		movs	r1, #1
 2363 0046 2046     		mov	r0, r4
 2364 0048 FFF7FEFF 		bl	ADXL345setActivityXYZ
 2365              	.LVL177:
 283:Src/main.c    **** 
 2366              		.loc 2 283 3 view .LVU519
 2367 004c 4B21     		movs	r1, #75
 2368 004e 2046     		mov	r0, r4
 2369 0050 FFF7FEFF 		bl	ADXL345setActivityThreshold
 2370              	.LVL178:
 285:Src/main.c    ****   ADXL345setInactivityThreshold(&adxl, 75);           // 62.5mg per increment   // Set inactivity /
 2371              		.loc 2 285 3 view .LVU520
 2372 0054 0023     		movs	r3, #0
 2373 0056 1A46     		mov	r2, r3
ARM GAS  /var/folders/h5/t6jc6jh127n_294bflj9bdw40000gn/T//ccH8MPpK.s 			page 66


 2374 0058 0121     		movs	r1, #1
 2375 005a 2046     		mov	r0, r4
 2376 005c FFF7FEFF 		bl	ADXL345setInactivityXYZ
 2377              	.LVL179:
 286:Src/main.c    ****   ADXL345setTimeInactivity(&adxl, 10);                // How many seconds of no activity is inactiv
 2378              		.loc 2 286 3 view .LVU521
 2379 0060 4B21     		movs	r1, #75
 2380 0062 2046     		mov	r0, r4
 2381 0064 FFF7FEFF 		bl	ADXL345setInactivityThreshold
 2382              	.LVL180:
 287:Src/main.c    **** 
 2383              		.loc 2 287 3 view .LVU522
 2384 0068 0A21     		movs	r1, #10
 2385 006a 2046     		mov	r0, r4
 2386 006c FFF7FEFF 		bl	ADXL345setTimeInactivity
 2387              	.LVL181:
 289:Src/main.c    **** 
 2388              		.loc 2 289 3 view .LVU523
 2389 0070 0023     		movs	r3, #0
 2390 0072 0122     		movs	r2, #1
 2391 0074 1946     		mov	r1, r3
 2392 0076 2046     		mov	r0, r4
 2393 0078 FFF7FEFF 		bl	ADXL345setTapDetectionOnXYZ
 2394              	.LVL182:
 292:Src/main.c    ****   ADXL345setTapDuration(&adxl, 20);                  // 625 μs per increment
 2395              		.loc 2 292 3 view .LVU524
 2396 007c 6421     		movs	r1, #100
 2397 007e 2046     		mov	r0, r4
 2398 0080 FFF7FEFF 		bl	ADXL345setTapThreshold
 2399              	.LVL183:
 293:Src/main.c    ****   ADXL345setDoubleTapLatency(&adxl, 200);             // 1.25 ms per increment
 2400              		.loc 2 293 3 view .LVU525
 2401 0084 1421     		movs	r1, #20
 2402 0086 2046     		mov	r0, r4
 2403 0088 FFF7FEFF 		bl	ADXL345setTapDuration
 2404              	.LVL184:
 294:Src/main.c    ****   ADXL345setDoubleTapWindow(&adxl, 400);             // 1.25 ms per increment
 2405              		.loc 2 294 3 view .LVU526
 2406 008c C821     		movs	r1, #200
 2407 008e 2046     		mov	r0, r4
 2408 0090 FFF7FEFF 		bl	ADXL345setDoubleTapLatency
 2409              	.LVL185:
 295:Src/main.c    **** 
 2410              		.loc 2 295 3 view .LVU527
 2411 0094 4FF4C871 		mov	r1, #400
 2412 0098 2046     		mov	r0, r4
 2413 009a FFF7FEFF 		bl	ADXL345setDoubleTapWindow
 2414              	.LVL186:
 298:Src/main.c    ****   ADXL345setFreeFallDuration(&adxl, 30);             // (20 - 70) recommended - 5ms per increment
 2415              		.loc 2 298 3 view .LVU528
 2416 009e 0721     		movs	r1, #7
 2417 00a0 2046     		mov	r0, r4
 2418 00a2 FFF7FEFF 		bl	ADXL345setFreeFallThreshold
 2419              	.LVL187:
 299:Src/main.c    **** 
 2420              		.loc 2 299 3 view .LVU529
 2421 00a6 1E21     		movs	r1, #30
ARM GAS  /var/folders/h5/t6jc6jh127n_294bflj9bdw40000gn/T//ccH8MPpK.s 			page 67


 2422 00a8 2046     		mov	r0, r4
 2423 00aa FFF7FEFF 		bl	ADXL345setFreeFallDuration
 2424              	.LVL188:
 301:Src/main.c    ****   ADXL345ActivityINT(&adxl, 1);
 2425              		.loc 2 301 3 view .LVU530
 2426 00ae 0121     		movs	r1, #1
 2427 00b0 2046     		mov	r0, r4
 2428 00b2 FFF7FEFF 		bl	ADXL345InactivityINT
 2429              	.LVL189:
 302:Src/main.c    ****   ADXL345FreeFallINT(&adxl, 1);
 2430              		.loc 2 302 3 view .LVU531
 2431 00b6 0121     		movs	r1, #1
 2432 00b8 2046     		mov	r0, r4
 2433 00ba FFF7FEFF 		bl	ADXL345ActivityINT
 2434              	.LVL190:
 303:Src/main.c    ****   ADXL345doubleTapINT(&adxl, 1);
 2435              		.loc 2 303 3 view .LVU532
 2436 00be 0121     		movs	r1, #1
 2437 00c0 2046     		mov	r0, r4
 2438 00c2 FFF7FEFF 		bl	ADXL345FreeFallINT
 2439              	.LVL191:
 304:Src/main.c    ****   ADXL345singleTapINT(&adxl, 1);
 2440              		.loc 2 304 3 view .LVU533
 2441 00c6 0121     		movs	r1, #1
 2442 00c8 2046     		mov	r0, r4
 2443 00ca FFF7FEFF 		bl	ADXL345doubleTapINT
 2444              	.LVL192:
 305:Src/main.c    **** 
 2445              		.loc 2 305 3 view .LVU534
 2446 00ce 0121     		movs	r1, #1
 2447 00d0 2046     		mov	r0, r4
 2448 00d2 FFF7FEFF 		bl	ADXL345singleTapINT
 2449              	.LVL193:
 307:Src/main.c    ****   {
 2450              		.loc 2 307 3 view .LVU535
 307:Src/main.c    ****   {
 2451              		.loc 2 307 6 is_stmt 0 view .LVU536
 2452 00d6 2F48     		ldr	r0, .L148+12
 2453 00d8 FFF7FEFF 		bl	lcd16x2_i2c_init
 2454              	.LVL194:
 307:Src/main.c    ****   {
 2455              		.loc 2 307 5 view .LVU537
 2456 00dc 48BB     		cbnz	r0, .L146
 2457              	.L141:
 313:Src/main.c    ****   char uart2Data[24] = "Connected to UART Two\r\n";
 2458              		.loc 2 313 3 is_stmt 1 view .LVU538
 2459 00de 2E48     		ldr	r0, .L148+16
 2460 00e0 FFF7FEFF 		bl	lcd16x2_i2c_printf
 2461              	.LVL195:
 314:Src/main.c    ****    /*
 2462              		.loc 2 314 3 view .LVU539
 314:Src/main.c    ****    /*
 2463              		.loc 2 314 8 is_stmt 0 view .LVU540
 2464 00e4 10AC     		add	r4, sp, #64
 2465 00e6 2D4D     		ldr	r5, .L148+20
 2466 00e8 0FCD     		ldmia	r5!, {r0, r1, r2, r3}
 2467 00ea 0FC4     		stmia	r4!, {r0, r1, r2, r3}
ARM GAS  /var/folders/h5/t6jc6jh127n_294bflj9bdw40000gn/T//ccH8MPpK.s 			page 68


 2468 00ec 95E80300 		ldm	r5, {r0, r1}
 2469 00f0 84E80300 		stm	r4, {r0, r1}
 320:Src/main.c    **** 
 2470              		.loc 2 320 3 is_stmt 1 view .LVU541
 2471 00f4 2A4D     		ldr	r5, .L148+24
 2472 00f6 4FF6FF73 		movw	r3, #65535
 2473 00fa 1822     		movs	r2, #24
 2474 00fc 10A9     		add	r1, sp, #64
 2475 00fe 2846     		mov	r0, r5
 2476 0100 FFF7FEFF 		bl	HAL_UART_Transmit
 2477              	.LVL196:
 322:Src/main.c    **** 
 2478              		.loc 2 322 3 view .LVU542
 2479 0104 2748     		ldr	r0, .L148+28
 2480 0106 FFF7FEFF 		bl	puts
 2481              	.LVL197:
 324:Src/main.c    ****   char scanningMsg2Data[21] = "Scanning I2C bus: \r\n";
 2482              		.loc 2 324 3 view .LVU543
 2483 010a 2748     		ldr	r0, .L148+32
 2484 010c FFF7FEFF 		bl	puts
 2485              	.LVL198:
 325:Src/main.c    ****   HAL_UART_Transmit(&huart2, (uint8_t *)&scanningMsg2Data,sizeof(scanningMsg2Data), 0xFFFF);
 2486              		.loc 2 325 3 view .LVU544
 325:Src/main.c    ****   HAL_UART_Transmit(&huart2, (uint8_t *)&scanningMsg2Data,sizeof(scanningMsg2Data), 0xFFFF);
 2487              		.loc 2 325 8 is_stmt 0 view .LVU545
 2488 0110 0AAC     		add	r4, sp, #40
 2489 0112 264E     		ldr	r6, .L148+36
 2490 0114 0FCE     		ldmia	r6!, {r0, r1, r2, r3}
 2491 0116 0FC4     		stmia	r4!, {r0, r1, r2, r3}
 2492 0118 96E80300 		ldm	r6, {r0, r1}
 2493 011c 44F8040B 		str	r0, [r4], #4
 2494 0120 2170     		strb	r1, [r4]
 326:Src/main.c    **** 	HAL_StatusTypeDef result;
 2495              		.loc 2 326 3 is_stmt 1 view .LVU546
 2496 0122 4FF6FF73 		movw	r3, #65535
 2497 0126 1522     		movs	r2, #21
 2498 0128 0AA9     		add	r1, sp, #40
 2499 012a 2846     		mov	r0, r5
 2500 012c FFF7FEFF 		bl	HAL_UART_Transmit
 2501              	.LVL199:
 327:Src/main.c    ****  	// uint8_t i;
 2502              		.loc 2 327 2 view .LVU547
 354:Src/main.c    ****   bool tap = false;
 2503              		.loc 2 354 3 view .LVU548
 355:Src/main.c    **** 
 2504              		.loc 2 355 3 view .LVU549
 355:Src/main.c    **** 
 2505              		.loc 2 355 3 is_stmt 0 view .LVU550
 2506 0130 1EE0     		b	.L144
 2507              	.LVL200:
 2508              	.L146:
 2509              	.LBB22:
 309:Src/main.c    ****     HAL_UART_Transmit(&huart2, (uint8_t *)&init2Data,sizeof(init2Data), 0xFFFF);
 2510              		.loc 2 309 5 is_stmt 1 view .LVU551
 309:Src/main.c    ****     HAL_UART_Transmit(&huart2, (uint8_t *)&init2Data,sizeof(init2Data), 0xFFFF);
 2511              		.loc 2 309 10 is_stmt 0 view .LVU552
 2512 0132 05AC     		add	r4, sp, #20
ARM GAS  /var/folders/h5/t6jc6jh127n_294bflj9bdw40000gn/T//ccH8MPpK.s 			page 69


 2513 0134 1E4D     		ldr	r5, .L148+40
 2514 0136 0FCD     		ldmia	r5!, {r0, r1, r2, r3}
 2515 0138 0FC4     		stmia	r4!, {r0, r1, r2, r3}
 2516 013a 2B68     		ldr	r3, [r5]
 2517 013c 2380     		strh	r3, [r4]	@ movhi
 310:Src/main.c    ****   }
 2518              		.loc 2 310 5 is_stmt 1 view .LVU553
 2519 013e 4FF6FF73 		movw	r3, #65535
 2520 0142 1222     		movs	r2, #18
 2521 0144 05A9     		add	r1, sp, #20
 2522 0146 1648     		ldr	r0, .L148+24
 2523 0148 FFF7FEFF 		bl	HAL_UART_Transmit
 2524              	.LVL201:
 2525 014c C7E7     		b	.L141
 2526              	.LVL202:
 2527              	.L147:
 310:Src/main.c    ****   }
 2528              		.loc 2 310 5 is_stmt 0 view .LVU554
 2529              	.LBE22:
 2530              	.LBB23:
 371:Src/main.c    ****     }
 2531              		.loc 2 371 7 is_stmt 1 view .LVU555
 2532 014e FFF7FEFF 		bl	playRythm
 2533              	.LVL203:
 2534              	.L143:
 377:Src/main.c    ****     sprintf(gravity2Data, "x=%d y=%d z=%d \r\n", x,y,z);
 2535              		.loc 2 377 5 view .LVU556
 378:Src/main.c    ****     HAL_UART_Transmit(&huart2, (uint8_t *)&gravity2Data,sizeof(gravity2Data), 0xFFFF);// Received a
 2536              		.loc 2 378 5 view .LVU557
 2537 0152 049B     		ldr	r3, [sp, #16]
 2538 0154 0093     		str	r3, [sp]
 2539 0156 039B     		ldr	r3, [sp, #12]
 2540 0158 029A     		ldr	r2, [sp, #8]
 2541 015a 1649     		ldr	r1, .L148+44
 2542 015c 05A8     		add	r0, sp, #20
 2543 015e FFF7FEFF 		bl	sprintf
 2544              	.LVL204:
 379:Src/main.c    ****     // HAL_Delay(350);
 2545              		.loc 2 379 5 view .LVU558
 2546 0162 4FF6FF73 		movw	r3, #65535
 2547 0166 1222     		movs	r2, #18
 2548 0168 05A9     		add	r1, sp, #20
 2549 016a 0D48     		ldr	r0, .L148+24
 2550 016c FFF7FEFF 		bl	HAL_UART_Transmit
 2551              	.LVL205:
 2552              	.LBE23:
 361:Src/main.c    ****   {
 2553              		.loc 2 361 9 view .LVU559
 2554              	.L144:
 361:Src/main.c    ****   {
 2555              		.loc 2 361 3 view .LVU560
 2556              	.LBB24:
 367:Src/main.c    ****     ADXL345readAccel_x_y_z(&adxl, &x, &y, &z); 
 2557              		.loc 2 367 5 view .LVU561
 368:Src/main.c    ****     if(z < 0)
 2558              		.loc 2 368 5 view .LVU562
 2559 0170 04AB     		add	r3, sp, #16
ARM GAS  /var/folders/h5/t6jc6jh127n_294bflj9bdw40000gn/T//ccH8MPpK.s 			page 70


 2560 0172 03AA     		add	r2, sp, #12
 2561 0174 02A9     		add	r1, sp, #8
 2562 0176 0448     		ldr	r0, .L148
 2563 0178 FFF7FEFF 		bl	ADXL345readAccel_x_y_z
 2564              	.LVL206:
 369:Src/main.c    ****     {
 2565              		.loc 2 369 5 view .LVU563
 369:Src/main.c    ****     {
 2566              		.loc 2 369 10 is_stmt 0 view .LVU564
 2567 017c 049B     		ldr	r3, [sp, #16]
 369:Src/main.c    ****     {
 2568              		.loc 2 369 7 view .LVU565
 2569 017e 002B     		cmp	r3, #0
 2570 0180 E5DB     		blt	.L147
 374:Src/main.c    ****     }
 2571              		.loc 2 374 7 is_stmt 1 view .LVU566
 2572 0182 FFF7FEFF 		bl	listen_for_rythm
 2573              	.LVL207:
 2574 0186 E4E7     		b	.L143
 2575              	.L149:
 2576              		.align	2
 2577              	.L148:
 2578 0188 00000000 		.word	.LANCHOR4
 2579 018c 00040240 		.word	1073873920
 2580 0190 00000000 		.word	.LANCHOR2
 2581 0194 00000000 		.word	.LANCHOR6
 2582 0198 00000000 		.word	.LC11
 2583 019c 0C000000 		.word	.LC12
 2584 01a0 00000000 		.word	.LANCHOR5
 2585 01a4 24000000 		.word	.LC9
 2586 01a8 00000000 		.word	.LC5
 2587 01ac 28000000 		.word	.LC6
 2588 01b0 24000000 		.word	.LC10
 2589 01b4 00000000 		.word	.LC1
 2590              	.LBE24:
 2591              		.cfi_endproc
 2592              	.LFE159:
 2594              		.global	zg
 2595              		.global	yg
 2596              		.global	xg
 2597              		.global	z
 2598              		.global	y
 2599              		.global	x
 2600              		.global	data_rec
 2601              		.global	adxl
 2602              		.global	huart2
 2603              		.global	hspi1
 2604              		.global	hi2c1
 2605              		.section	.bss.LCD_I2C_SLAVE_ADDRESS,"aw",%nobits
 2606              		.set	.LANCHOR0,. + 0
 2609              	LCD_I2C_SLAVE_ADDRESS:
 2610 0000 00       		.space	1
 2611              		.section	.bss.adxl,"aw",%nobits
 2612              		.align	2
 2613              		.set	.LANCHOR4,. + 0
 2616              	adxl:
 2617 0000 00000000 		.space	48
ARM GAS  /var/folders/h5/t6jc6jh127n_294bflj9bdw40000gn/T//ccH8MPpK.s 			page 71


 2617      00000000 
 2617      00000000 
 2617      00000000 
 2617      00000000 
 2618              		.section	.bss.data_rec,"aw",%nobits
 2619              		.align	2
 2620              		.set	.LANCHOR3,. + 0
 2623              	data_rec:
 2624 0000 00000000 		.space	6
 2624      0000
 2625              		.section	.bss.hi2c1,"aw",%nobits
 2626              		.align	2
 2627              		.set	.LANCHOR6,. + 0
 2630              	hi2c1:
 2631 0000 00000000 		.space	84
 2631      00000000 
 2631      00000000 
 2631      00000000 
 2631      00000000 
 2632              		.section	.bss.hspi1,"aw",%nobits
 2633              		.align	2
 2634              		.set	.LANCHOR2,. + 0
 2637              	hspi1:
 2638 0000 00000000 		.space	88
 2638      00000000 
 2638      00000000 
 2638      00000000 
 2638      00000000 
 2639              		.section	.bss.huart2,"aw",%nobits
 2640              		.align	2
 2641              		.set	.LANCHOR5,. + 0
 2644              	huart2:
 2645 0000 00000000 		.space	64
 2645      00000000 
 2645      00000000 
 2645      00000000 
 2645      00000000 
 2646              		.section	.bss.lcd16x2_i2cHandle,"aw",%nobits
 2647              		.align	2
 2648              		.set	.LANCHOR1,. + 0
 2651              	lcd16x2_i2cHandle:
 2652 0000 00000000 		.space	4
 2653              		.section	.bss.x,"aw",%nobits
 2654              		.align	1
 2657              	x:
 2658 0000 0000     		.space	2
 2659              		.section	.bss.xg,"aw",%nobits
 2660              		.align	2
 2663              	xg:
 2664 0000 00000000 		.space	4
 2665              		.section	.bss.y,"aw",%nobits
 2666              		.align	1
 2669              	y:
 2670 0000 0000     		.space	2
 2671              		.section	.bss.yg,"aw",%nobits
 2672              		.align	2
 2675              	yg:
ARM GAS  /var/folders/h5/t6jc6jh127n_294bflj9bdw40000gn/T//ccH8MPpK.s 			page 72


 2676 0000 00000000 		.space	4
 2677              		.section	.bss.z,"aw",%nobits
 2678              		.align	1
 2681              	z:
 2682 0000 0000     		.space	2
 2683              		.section	.bss.zg,"aw",%nobits
 2684              		.align	2
 2687              	zg:
 2688 0000 00000000 		.space	4
 2689              		.text
 2690              	.Letext0:
 2691              		.file 4 "/Users/maciejtonderski/opt/gcc-arm-none-eabi-10-2020-q4-major/arm-none-eabi/include/machi
 2692              		.file 5 "/Users/maciejtonderski/opt/gcc-arm-none-eabi-10-2020-q4-major/arm-none-eabi/include/sys/_
 2693              		.file 6 "Drivers/CMSIS/Device/ST/STM32F4xx/Include/stm32f411xe.h"
 2694              		.file 7 "Drivers/STM32F4xx_HAL_Driver/Inc/stm32f4xx_hal_def.h"
 2695              		.file 8 "Drivers/STM32F4xx_HAL_Driver/Inc/stm32f4xx_hal_rcc_ex.h"
 2696              		.file 9 "Drivers/STM32F4xx_HAL_Driver/Inc/stm32f4xx_hal_rcc.h"
 2697              		.file 10 "Drivers/STM32F4xx_HAL_Driver/Inc/stm32f4xx_hal_gpio.h"
 2698              		.file 11 "Drivers/STM32F4xx_HAL_Driver/Inc/stm32f4xx_hal_dma.h"
 2699              		.file 12 "Drivers/STM32F4xx_HAL_Driver/Inc/stm32f4xx_hal_i2c.h"
 2700              		.file 13 "Drivers/STM32F4xx_HAL_Driver/Inc/stm32f4xx_hal_spi.h"
 2701              		.file 14 "Drivers/STM32F4xx_HAL_Driver/Inc/stm32f4xx_hal_uart.h"
 2702              		.file 15 "/Users/maciejtonderski/opt/gcc-arm-none-eabi-10-2020-q4-major/lib/gcc/arm-none-eabi/10.2
 2703              		.file 16 "/Users/maciejtonderski/opt/gcc-arm-none-eabi-10-2020-q4-major/arm-none-eabi/include/stdi
 2704              		.file 17 "Inc/ADXL345.h"
 2705              		.file 18 "Drivers/STM32F4xx_HAL_Driver/Inc/stm32f4xx_hal.h"
 2706              		.file 19 "<built-in>"
 2707              		.file 20 "/Users/maciejtonderski/opt/gcc-arm-none-eabi-10-2020-q4-major/arm-none-eabi/include/stri
ARM GAS  /var/folders/h5/t6jc6jh127n_294bflj9bdw40000gn/T//ccH8MPpK.s 			page 73

